

Microchip Technology PIC LITE Macro Assembler V1.33 build 59893 
                                                                                               Wed Apr 29 08:55:24 2026

Microchip Technology Omniscient Code Generator (Lite mode) build 59893
     1                           	processor	16F877A
     2                           	opt	pw 120
     3                           	opt	lm
     4                           	psect	strings,global,class=STRING,delta=2
     5                           	psect	cinit,global,class=CODE,merge=1,delta=2
     6                           	psect	bssBANK1,global,class=BANK1,space=1,delta=1
     7                           	psect	cstackBANK1,global,class=BANK1,space=1,delta=1
     8                           	psect	cstackCOMMON,global,class=COMMON,space=1,delta=1
     9                           	psect	cstackBANK0,global,class=BANK0,space=1,delta=1
    10                           	psect	maintext,global,class=CODE,split=1,delta=2
    11                           	psect	text1,local,class=CODE,merge=1,delta=2
    12                           	psect	text2,local,class=CODE,merge=1,delta=2
    13                           	psect	text3,local,class=CODE,merge=1,delta=2
    14                           	psect	text4,local,class=CODE,merge=1,delta=2
    15                           	psect	text5,local,class=CODE,merge=1,delta=2
    16                           	psect	text6,local,class=CODE,merge=1,delta=2
    17                           	psect	text7,local,class=CODE,merge=1,delta=2
    18                           	psect	text8,local,class=CODE,merge=1,delta=2
    19                           	psect	text9,local,class=CODE,merge=1,delta=2
    20                           	psect	text10,local,class=CODE,merge=1,delta=2
    21                           	psect	text11,local,class=CODE,merge=1,delta=2
    22                           	psect	text12,local,class=CODE,merge=1,delta=2
    23                           	psect	text13,local,class=CODE,merge=1,delta=2
    24                           	psect	text14,local,class=CODE,merge=1,delta=2
    25                           	psect	text15,local,class=CODE,merge=1,delta=2
    26                           	psect	text16,local,class=CODE,merge=1,delta=2
    27                           	psect	text17,local,class=CODE,merge=1,delta=2
    28                           	psect	text18,local,class=CODE,merge=1,delta=2
    29                           	psect	text19,local,class=CODE,merge=1,delta=2
    30                           	psect	text20,local,class=CODE,merge=1,delta=2
    31                           	psect	text21,local,class=CODE,merge=1,delta=2
    32                           	psect	text22,local,class=CODE,merge=1,delta=2
    33                           	psect	text23,local,class=CODE,merge=1,delta=2
    34                           	psect	text24,local,class=CODE,merge=1,delta=2
    35                           	psect	text25,local,class=CODE,merge=1,delta=2
    36                           	psect	text26,local,class=CODE,merge=1,delta=2
    37                           	psect	text27,local,class=CODE,merge=1,delta=2
    38                           	psect	text28,local,class=CODE,merge=1,delta=2
    39                           	psect	text29,local,class=CODE,merge=1,delta=2
    40                           	psect	text30,local,class=CODE,merge=1,delta=2
    41                           	psect	text31,local,class=CODE,merge=1,delta=2
    42                           	psect	text32,local,class=CODE,merge=1,delta=2
    43                           	psect	text33,local,class=CODE,merge=1,delta=2
    44                           	psect	text34,local,class=CODE,merge=1,delta=2
    45                           	psect	text35,local,class=CODE,merge=1,delta=2
    46                           	psect	text36,local,class=CODE,merge=1,delta=2
    47                           	dabs	1,0x7E,2
    48  0000                     	;# 
    49  0001                     	;# 
    50  0002                     	;# 
    51  0003                     	;# 
    52  0004                     	;# 
    53  0005                     	;# 
    54  0006                     	;# 
    55  0007                     	;# 
    56  0008                     	;# 
    57  0009                     	;# 
    58  000A                     	;# 
    59  000B                     	;# 
    60  000C                     	;# 
    61  000D                     	;# 
    62  000E                     	;# 
    63  000E                     	;# 
    64  000F                     	;# 
    65  0010                     	;# 
    66  0011                     	;# 
    67  0012                     	;# 
    68  0013                     	;# 
    69  0014                     	;# 
    70  0015                     	;# 
    71  0015                     	;# 
    72  0016                     	;# 
    73  0017                     	;# 
    74  0018                     	;# 
    75  0019                     	;# 
    76  001A                     	;# 
    77  001B                     	;# 
    78  001B                     	;# 
    79  001C                     	;# 
    80  001D                     	;# 
    81  001E                     	;# 
    82  001F                     	;# 
    83  0081                     	;# 
    84  0085                     	;# 
    85  0086                     	;# 
    86  0087                     	;# 
    87  0088                     	;# 
    88  0089                     	;# 
    89  008C                     	;# 
    90  008D                     	;# 
    91  008E                     	;# 
    92  0091                     	;# 
    93  0092                     	;# 
    94  0093                     	;# 
    95  0094                     	;# 
    96  0098                     	;# 
    97  0099                     	;# 
    98  009C                     	;# 
    99  009D                     	;# 
   100  009E                     	;# 
   101  009F                     	;# 
   102  010C                     	;# 
   103  010D                     	;# 
   104  010E                     	;# 
   105  010F                     	;# 
   106  018C                     	;# 
   107  018D                     	;# 
   108                           
   109                           	psect	strings
   110  0800                     __pstrings:	
   111  0800                     stringtab:	
   112  0800                     __stringtab:	
   113  0800                     stringcode:	
   114                           ;	String table - string pointers are 1 byte each
   115                           
   116  0800                     stringdir:	
   117  0800  3008               	movlw	high stringdir
   118  0801  008A               	movwf	10
   119  0802  0804               	movf	4,w
   120  0803  0A84               	incf	4,f
   121  0804  0782               	addwf	2,f
   122  0805                     __stringbase:	
   123  0805  3400               	retlw	0
   124  0806                     __end_of__stringtab:	
   125  0806                     _dpowers:	
   126  0806  3401               	retlw	1
   127  0807  3400               	retlw	0
   128  0808  340A               	retlw	10
   129  0809  3400               	retlw	0
   130  080A  3464               	retlw	100
   131  080B  3400               	retlw	0
   132  080C  34E8               	retlw	232
   133  080D  3403               	retlw	3
   134  080E  3410               	retlw	16
   135  080F  3427               	retlw	39
   136  0810                     __end_of_dpowers:	
   137  0810                     exp@coeff:	
   138  0810  3400               	retlw	0
   139  0811  3480               	retlw	128
   140  0812  343F               	retlw	63
   141  0813  3472               	retlw	114
   142  0814  3431               	retlw	49
   143  0815  343F               	retlw	63
   144  0816  34FE               	retlw	254
   145  0817  3475               	retlw	117
   146  0818  343E               	retlw	62
   147  0819  3458               	retlw	88
   148  081A  3463               	retlw	99
   149  081B  343D               	retlw	61
   150  081C  3495               	retlw	149
   151  081D  341D               	retlw	29
   152  081E  343C               	retlw	60
   153  081F  34C5               	retlw	197
   154  0820  34AE               	retlw	174
   155  0821  343A               	retlw	58
   156  0822  3479               	retlw	121
   157  0823  3421               	retlw	33
   158  0824  3439               	retlw	57
   159  0825  3494               	retlw	148
   160  0826  3480               	retlw	128
   161  0827  3437               	retlw	55
   162  0828  3493               	retlw	147
   163  0829  34A7               	retlw	167
   164  082A  3435               	retlw	53
   165  082B  3456               	retlw	86
   166  082C  3415               	retlw	21
   167  082D  3434               	retlw	52
   168  082E                     __end_ofexp@coeff:	
   169  082E                     log@coeff:	
   170  082E  3400               	retlw	0
   171  082F  3400               	retlw	0
   172  0830  3400               	retlw	0
   173  0831  3400               	retlw	0
   174  0832  3480               	retlw	128
   175  0833  343F               	retlw	63
   176  0834  34F0               	retlw	240
   177  0835  34FF               	retlw	255
   178  0836  34BE               	retlw	190
   179  0837  34E2               	retlw	226
   180  0838  34A9               	retlw	169
   181  0839  343E               	retlw	62
   182  083A  3483               	retlw	131
   183  083B  3476               	retlw	118
   184  083C  34BE               	retlw	190
   185  083D  34AE               	retlw	174
   186  083E  342B               	retlw	43
   187  083F  343E               	retlw	62
   188  0840  343C               	retlw	60
   189  0841  34C3               	retlw	195
   190  0842  34BD               	retlw	189
   191  0843  34D2               	retlw	210
   192  0844  3413               	retlw	19
   193  0845  343D               	retlw	61
   194  0846  3478               	retlw	120
   195  0847  34D3               	retlw	211
   196  0848  34BB               	retlw	187
   197  0849                     __end_oflog@coeff:	
   198  0006                     _PORTB	set	6
   199  0008                     _PORTD	set	8
   200  0013                     _SSPBUF	set	19
   201  0014                     _SSPCON	set	20
   202  0040                     _RD0	set	64
   203  0041                     _RD1	set	65
   204  0093                     _SSPADD	set	147
   205  0091                     _SSPCON2	set	145
   206  0094                     _SSPSTAT	set	148
   207  0086                     _TRISB	set	134
   208  0088                     _TRISD	set	136
   209  048D                     _ACKDT	set	1165
   210  048C                     _ACKEN	set	1164
   211  048A                     _PEN	set	1162
   212  048B                     _RCEN	set	1163
   213  0489                     _RSEN	set	1161
   214  0488                     _SEN	set	1160
   215  043B                     _TRISC3	set	1083
   216  043C                     _TRISC4	set	1084
   217  0849                     __stringdata:	
   218  0849                     STR_1:	
   219  0849  3425               	retlw	37	;'%'
   220  084A  3464               	retlw	100	;'d'
   221  084B  3400               	retlw	0
   222  084C                     __end_of__stringdata:	
   223                           
   224                           ; #config settings
   225  0000                     
   226                           	psect	cinit
   227  07F3                     start_initialization:	
   228  07F3                     __initialization:	
   229                           
   230                           ; Clear objects allocated to BANK1
   231  07F3  1683               	bsf	3,5	;RP0=1, select bank1
   232  07F4  1303               	bcf	3,6	;RP1=0, select bank1
   233  07F5  01C7               	clrf	__pbssBANK1& (0+127)
   234  07F6  01C8               	clrf	(__pbssBANK1+1)& (0+127)
   235  07F7  01C9               	clrf	(__pbssBANK1+2)& (0+127)
   236  07F8  01CA               	clrf	(__pbssBANK1+3)& (0+127)
   237  07F9  01CB               	clrf	(__pbssBANK1+4)& (0+127)
   238  07FA  01CC               	clrf	(__pbssBANK1+5)& (0+127)
   239  07FB  01CD               	clrf	(__pbssBANK1+6)& (0+127)
   240  07FC                     end_of_initialization:	
   241                           ;End of C runtime variable initialization code
   242                           
   243  07FC                     __end_of__initialization:	
   244  07FC  0183               	clrf	3
   245  07FD  120A  118A  2DB3   	ljmp	_main	;jump to C main() function
   246                           
   247                           	psect	bssBANK1
   248  00C7                     __pbssBANK1:	
   249  00C7                     _T:	
   250  00C7                     	ds	3
   251  00CA                     _RH:	
   252  00CA                     	ds	2
   253  00CC                     _errno:	
   254  00CC                     	ds	2
   255                           
   256                           	psect	cstackBANK1
   257  00A0                     __pcstackBANK1:	
   258  00A0                     _exp$649:	
   259  00A0                     dispRH@val:	
   260                           ; 3 bytes @ 0x0
   261                           
   262  00A0                     dispT@val:	
   263                           ; 10 bytes @ 0x0
   264                           
   265                           
   266                           ; 10 bytes @ 0x0
   267  00A0                     	ds	3
   268  00A3                     _exp$440:	
   269                           
   270                           ; 3 bytes @ 0x3
   271  00A3                     	ds	3
   272  00A6                     exp@exponent:	
   273                           
   274                           ; 2 bytes @ 0x6
   275  00A6                     	ds	2
   276  00A8                     exp@sign:	
   277                           
   278                           ; 1 bytes @ 0x8
   279  00A8                     	ds	1
   280  00A9                     ?_pow:	
   281  00A9                     pow@x:	
   282                           ; 3 bytes @ 0x9
   283                           
   284                           
   285                           ; 3 bytes @ 0x9
   286  00A9                     	ds	1
   287  00AA                     dispRH@i:	
   288  00AA                     dispT@i:	
   289                           ; 2 bytes @ 0xA
   290                           
   291                           
   292                           ; 2 bytes @ 0xA
   293  00AA                     	ds	2
   294  00AC                     pow@y:	
   295                           
   296                           ; 3 bytes @ 0xC
   297  00AC                     	ds	3
   298  00AF                     ??_pow:	
   299                           
   300                           ; 0 bytes @ 0xF
   301  00AF                     	ds	1
   302  00B0                     _pow$647:	
   303                           
   304                           ; 3 bytes @ 0x10
   305  00B0                     	ds	3
   306  00B3                     _pow$648:	
   307                           
   308                           ; 3 bytes @ 0x13
   309  00B3                     	ds	3
   310  00B6                     pow@sign:	
   311                           
   312                           ; 1 bytes @ 0x16
   313  00B6                     	ds	1
   314  00B7                     pow@yi:	
   315                           
   316                           ; 4 bytes @ 0x17
   317  00B7                     	ds	4
   318  00BB                     ??_main:	
   319                           
   320                           ; 0 bytes @ 0x1B
   321  00BB                     	ds	2
   322  00BD                     _main$646:	
   323                           
   324                           ; 3 bytes @ 0x1D
   325  00BD                     	ds	3
   326  00C0                     main@res:	
   327                           
   328                           ; 2 bytes @ 0x20
   329  00C0                     	ds	2
   330  00C2                     main@RH_temp:	
   331                           
   332                           ; 2 bytes @ 0x22
   333  00C2                     	ds	2
   334  00C4                     main@T_temp:	
   335                           
   336                           ; 2 bytes @ 0x24
   337  00C4                     	ds	2
   338  00C6                     main@temp:	
   339                           
   340                           ; 1 bytes @ 0x26
   341  00C6                     	ds	1
   342                           
   343                           	psect	cstackCOMMON
   344  0070                     __pcstackCOMMON:	
   345  0070                     ?_init_I2C_Master:	
   346  0070                     ??_init_I2C_Master:	
   347                           ; 0 bytes @ 0x0
   348                           
   349  0070                     ?_initLCD:	
   350                           ; 0 bytes @ 0x0
   351                           
   352  0070                     ?_I2C_Start:	
   353                           ; 0 bytes @ 0x0
   354                           
   355  0070                     ??_I2C_Start:	
   356                           ; 0 bytes @ 0x0
   357                           
   358  0070                     ?_I2C_Send:	
   359                           ; 0 bytes @ 0x0
   360                           
   361  0070                     ??_I2C_Send:	
   362                           ; 0 bytes @ 0x0
   363                           
   364  0070                     ?_I2C_RepeatedStart:	
   365                           ; 0 bytes @ 0x0
   366                           
   367  0070                     ??_I2C_RepeatedStart:	
   368                           ; 0 bytes @ 0x0
   369                           
   370  0070                     ??_I2C_Receive:	
   371                           ; 0 bytes @ 0x0
   372                           
   373  0070                     ?_I2C_Stop:	
   374                           ; 0 bytes @ 0x0
   375                           
   376  0070                     ??_I2C_Stop:	
   377                           ; 0 bytes @ 0x0
   378                           
   379  0070                     ?_delay_ms:	
   380                           ; 0 bytes @ 0x0
   381                           
   382  0070                     ?_dispRH:	
   383                           ; 0 bytes @ 0x0
   384                           
   385  0070                     ?_dispT:	
   386                           ; 0 bytes @ 0x0
   387                           
   388  0070                     ?_dataCtrl:	
   389                           ; 0 bytes @ 0x0
   390                           
   391  0070                     ?_main:	
   392                           ; 0 bytes @ 0x0
   393                           
   394  0070                     ?_instCtrl:	
   395                           ; 0 bytes @ 0x0
   396                           
   397  0070                     ?_I2C_Wait:	
   398                           ; 0 bytes @ 0x0
   399                           
   400  0070                     ??_I2C_Wait:	
   401                           ; 0 bytes @ 0x0
   402                           
   403  0070                     ?___ftge:	
   404                           ; 0 bytes @ 0x0
   405                           
   406  0070                     ?_I2C_Receive:	
   407                           ; 1 bit 
   408                           
   409  0070                     ?___bmul:	
   410                           ; 1 bytes @ 0x0
   411                           
   412  0070                     ?___lwdiv:	
   413                           ; 1 bytes @ 0x0
   414                           
   415  0070                     ?___ftpack:	
   416                           ; 2 bytes @ 0x0
   417                           
   418  0070                     ?_frexp:	
   419                           ; 3 bytes @ 0x0
   420                           
   421  0070                     ?___ftneg:	
   422                           ; 3 bytes @ 0x0
   423                           
   424  0070                     I2C_Send@data:	
   425                           ; 3 bytes @ 0x0
   426                           
   427  0070                     ___bmul@multiplicand:	
   428                           ; 1 bytes @ 0x0
   429                           
   430  0070                     delay_ms@cnt:	
   431                           ; 1 bytes @ 0x0
   432                           
   433  0070                     ___lwdiv@divisor:	
   434                           ; 2 bytes @ 0x0
   435                           
   436  0070                     ___ftpack@arg:	
   437                           ; 2 bytes @ 0x0
   438                           
   439  0070                     ___ftge@ff1:	
   440                           ; 3 bytes @ 0x0
   441                           
   442  0070                     ___ftneg@f1:	
   443                           ; 3 bytes @ 0x0
   444                           
   445  0070                     frexp@value:	
   446                           ; 3 bytes @ 0x0
   447                           
   448                           
   449                           ; 3 bytes @ 0x0
   450  0070                     	ds	1
   451  0071                     ??___bmul:	
   452  0071                     I2C_Receive@ack:	
   453                           ; 0 bytes @ 0x1
   454                           
   455                           
   456                           ; 1 bytes @ 0x1
   457  0071                     	ds	1
   458  0072                     ??_delay_ms:	
   459  0072                     I2C_Receive@temp:	
   460                           ; 0 bytes @ 0x2
   461                           
   462  0072                     ___bmul@product:	
   463                           ; 1 bytes @ 0x2
   464                           
   465  0072                     ___lwdiv@dividend:	
   466                           ; 1 bytes @ 0x2
   467                           
   468                           
   469                           ; 2 bytes @ 0x2
   470  0072                     	ds	1
   471  0073                     ??_dataCtrl:	
   472  0073                     ??_instCtrl:	
   473                           ; 0 bytes @ 0x3
   474                           
   475  0073                     ??___ftneg:	
   476                           ; 0 bytes @ 0x3
   477                           
   478  0073                     instCtrl@INST:	
   479                           ; 0 bytes @ 0x3
   480                           
   481  0073                     dataCtrl@DATA:	
   482                           ; 1 bytes @ 0x3
   483                           
   484  0073                     ___bmul@multiplier:	
   485                           ; 1 bytes @ 0x3
   486                           
   487  0073                     ___ftpack@exp:	
   488                           ; 1 bytes @ 0x3
   489                           
   490  0073                     frexp@eptr:	
   491                           ; 1 bytes @ 0x3
   492                           
   493  0073                     ___ftge@ff2:	
   494                           ; 1 bytes @ 0x3
   495                           
   496                           
   497                           ; 3 bytes @ 0x3
   498  0073                     	ds	1
   499  0074                     ??_initLCD:	
   500  0074                     ??_frexp:	
   501                           ; 0 bytes @ 0x4
   502                           
   503  0074                     ??___lwdiv:	
   504                           ; 0 bytes @ 0x4
   505                           
   506  0074                     ___ftpack@sign:	
   507                           ; 0 bytes @ 0x4
   508                           
   509                           
   510                           ; 1 bytes @ 0x4
   511  0074                     	ds	1
   512  0075                     ??___ftpack:	
   513  0075                     ___lwdiv@quotient:	
   514                           ; 0 bytes @ 0x5
   515                           
   516                           
   517                           ; 2 bytes @ 0x5
   518  0075                     	ds	1
   519  0076                     ??___ftge:	
   520                           
   521                           ; 0 bytes @ 0x6
   522  0076                     	ds	1
   523  0077                     ___lwdiv@counter:	
   524                           
   525                           ; 1 bytes @ 0x7
   526  0077                     	ds	1
   527  0078                     ?___lwmod:	
   528  0078                     ?___awtoft:	
   529                           ; 2 bytes @ 0x8
   530                           
   531  0078                     ?___lltoft:	
   532                           ; 3 bytes @ 0x8
   533                           
   534  0078                     ?___lwtoft:	
   535                           ; 3 bytes @ 0x8
   536                           
   537  0078                     ___awtoft@c:	
   538                           ; 3 bytes @ 0x8
   539                           
   540  0078                     ___lwmod@divisor:	
   541                           ; 2 bytes @ 0x8
   542                           
   543  0078                     ___lwtoft@c:	
   544                           ; 2 bytes @ 0x8
   545                           
   546  0078                     ___lltoft@c:	
   547                           ; 2 bytes @ 0x8
   548                           
   549                           
   550                           ; 4 bytes @ 0x8
   551  0078                     	ds	2
   552  007A                     ___lwmod@dividend:	
   553                           
   554                           ; 2 bytes @ 0xA
   555  007A                     	ds	1
   556  007B                     ??___awtoft:	
   557  007B                     ??___lwtoft:	
   558                           ; 0 bytes @ 0xB
   559                           
   560                           
   561                           ; 0 bytes @ 0xB
   562  007B                     	ds	1
   563  007C                     ??___lltoft:	
   564  007C                     ??___lwmod:	
   565                           ; 0 bytes @ 0xC
   566                           
   567                           
   568                           ; 0 bytes @ 0xC
   569  007C                     	ds	1
   570  007D                     ___awtoft@sign:	
   571  007D                     ___lltoft@exp:	
   572                           ; 1 bytes @ 0xD
   573                           
   574  007D                     ___lwmod@counter:	
   575                           ; 1 bytes @ 0xD
   576                           
   577                           
   578                           ; 1 bytes @ 0xD
   579  007D                     	ds	1
   580  007E                     ??___ftsub:	
   581                           
   582                           	psect	cstackBANK0
   583  0020                     __pcstackBANK0:	
   584                           ; 0 bytes @ 0xE
   585                           
   586  0020                     ?___ftdiv:	
   587  0020                     ___ftdiv@f2:	
   588                           ; 3 bytes @ 0x0
   589                           
   590                           
   591                           ; 3 bytes @ 0x0
   592  0020                     	ds	3
   593  0023                     ___ftdiv@f1:	
   594                           
   595                           ; 3 bytes @ 0x3
   596  0023                     	ds	3
   597  0026                     ??___ftdiv:	
   598                           
   599                           ; 0 bytes @ 0x6
   600  0026                     	ds	4
   601  002A                     ___ftdiv@cntr:	
   602                           
   603                           ; 1 bytes @ 0xA
   604  002A                     	ds	1
   605  002B                     ___ftdiv@f3:	
   606                           
   607                           ; 3 bytes @ 0xB
   608  002B                     	ds	3
   609  002E                     ___ftdiv@exp:	
   610                           
   611                           ; 1 bytes @ 0xE
   612  002E                     	ds	1
   613  002F                     ___ftdiv@sign:	
   614                           
   615                           ; 1 bytes @ 0xF
   616  002F                     	ds	1
   617  0030                     ?___ftmul:	
   618  0030                     ___ftmul@f1:	
   619                           ; 3 bytes @ 0x10
   620                           
   621                           
   622                           ; 3 bytes @ 0x10
   623  0030                     	ds	3
   624  0033                     ___ftmul@f2:	
   625                           
   626                           ; 3 bytes @ 0x13
   627  0033                     	ds	3
   628  0036                     ??___ftmul:	
   629                           
   630                           ; 0 bytes @ 0x16
   631  0036                     	ds	4
   632  003A                     ___ftmul@exp:	
   633                           
   634                           ; 1 bytes @ 0x1A
   635  003A                     	ds	1
   636  003B                     ___ftmul@f3_as_product:	
   637                           
   638                           ; 3 bytes @ 0x1B
   639  003B                     	ds	3
   640  003E                     ___ftmul@cntr:	
   641                           
   642                           ; 1 bytes @ 0x1E
   643  003E                     	ds	1
   644  003F                     ___ftmul@sign:	
   645                           
   646                           ; 1 bytes @ 0x1F
   647  003F                     	ds	1
   648  0040                     ?___ftadd:	
   649  0040                     ___ftadd@f1:	
   650                           ; 3 bytes @ 0x20
   651                           
   652                           
   653                           ; 3 bytes @ 0x20
   654  0040                     	ds	3
   655  0043                     ___ftadd@f2:	
   656                           
   657                           ; 3 bytes @ 0x23
   658  0043                     	ds	3
   659  0046                     ??___ftadd:	
   660                           
   661                           ; 0 bytes @ 0x26
   662  0046                     	ds	4
   663  004A                     ___ftadd@sign:	
   664                           
   665                           ; 1 bytes @ 0x2A
   666  004A                     	ds	1
   667  004B                     ___ftadd@exp2:	
   668                           
   669                           ; 1 bytes @ 0x2B
   670  004B                     	ds	1
   671  004C                     ___ftadd@exp1:	
   672                           
   673                           ; 1 bytes @ 0x2C
   674  004C                     	ds	1
   675  004D                     ?_eval_poly:	
   676  004D                     ?___ftsub:	
   677                           ; 3 bytes @ 0x2D
   678                           
   679  004D                     ?___fttol:	
   680                           ; 3 bytes @ 0x2D
   681                           
   682  004D                     ___ftsub@f2:	
   683                           ; 4 bytes @ 0x2D
   684                           
   685  004D                     ___fttol@f1:	
   686                           ; 3 bytes @ 0x2D
   687                           
   688  004D                     eval_poly@x:	
   689                           ; 3 bytes @ 0x2D
   690                           
   691                           
   692                           ; 3 bytes @ 0x2D
   693  004D                     	ds	3
   694  0050                     eval_poly@d:	
   695  0050                     ___ftsub@f1:	
   696                           ; 1 bytes @ 0x30
   697                           
   698                           
   699                           ; 3 bytes @ 0x30
   700  0050                     	ds	1
   701  0051                     ??___fttol:	
   702  0051                     eval_poly@n:	
   703                           ; 0 bytes @ 0x31
   704                           
   705                           
   706                           ; 2 bytes @ 0x31
   707  0051                     	ds	2
   708  0053                     ??_eval_poly:	
   709                           
   710                           ; 0 bytes @ 0x33
   711  0053                     	ds	1
   712  0054                     eval_poly@res:	
   713                           
   714                           ; 3 bytes @ 0x34
   715  0054                     	ds	1
   716  0055                     ___fttol@sign1:	
   717                           
   718                           ; 1 bytes @ 0x35
   719  0055                     	ds	1
   720  0056                     ___fttol@lval:	
   721                           
   722                           ; 4 bytes @ 0x36
   723  0056                     	ds	1
   724  0057                     ?_log:	
   725  0057                     ?_ldexp:	
   726                           ; 3 bytes @ 0x37
   727                           
   728  0057                     ldexp@value:	
   729                           ; 3 bytes @ 0x37
   730                           
   731  0057                     log@x:	
   732                           ; 3 bytes @ 0x37
   733                           
   734                           
   735                           ; 3 bytes @ 0x37
   736  0057                     	ds	3
   737  005A                     ??_log:	
   738  005A                     ___fttol@exp1:	
   739                           ; 0 bytes @ 0x3A
   740                           
   741  005A                     ldexp@newexp:	
   742                           ; 1 bytes @ 0x3A
   743                           
   744                           
   745                           ; 2 bytes @ 0x3A
   746  005A                     	ds	1
   747  005B                     ?_sprintf:	
   748  005B                     ?___altoft:	
   749                           ; 2 bytes @ 0x3B
   750                           
   751  005B                     sprintf@f:	
   752                           ; 3 bytes @ 0x3B
   753                           
   754  005B                     log@exponent:	
   755                           ; 1 bytes @ 0x3B
   756                           
   757  005B                     ___altoft@c:	
   758                           ; 2 bytes @ 0x3B
   759                           
   760                           
   761                           ; 4 bytes @ 0x3B
   762  005B                     	ds	1
   763  005C                     ??_ldexp:	
   764                           
   765                           ; 0 bytes @ 0x3C
   766  005C                     	ds	2
   767  005E                     ??_sprintf:	
   768  005E                     _ldexp$477:	
   769                           ; 0 bytes @ 0x3E
   770                           
   771                           
   772                           ; 3 bytes @ 0x3E
   773  005E                     	ds	1
   774  005F                     ??___altoft:	
   775                           
   776                           ; 0 bytes @ 0x3F
   777  005F                     	ds	2
   778  0061                     sprintf@ap:	
   779  0061                     ___altoft@exp:	
   780                           ; 1 bytes @ 0x41
   781                           
   782                           
   783                           ; 1 bytes @ 0x41
   784  0061                     	ds	1
   785  0062                     sprintf@flag:	
   786  0062                     ___altoft@sign:	
   787                           ; 1 bytes @ 0x42
   788                           
   789                           
   790                           ; 1 bytes @ 0x42
   791  0062                     	ds	1
   792  0063                     ?_floor:	
   793  0063                     sprintf@prec:	
   794                           ; 3 bytes @ 0x43
   795                           
   796  0063                     floor@x:	
   797                           ; 1 bytes @ 0x43
   798                           
   799                           
   800                           ; 3 bytes @ 0x43
   801  0063                     	ds	1
   802  0064                     sprintf@_val:	
   803                           
   804                           ; 4 bytes @ 0x44
   805  0064                     	ds	2
   806  0066                     ??_floor:	
   807                           
   808                           ; 0 bytes @ 0x46
   809  0066                     	ds	1
   810  0067                     floor@i:	
   811                           
   812                           ; 3 bytes @ 0x47
   813  0067                     	ds	1
   814  0068                     sprintf@sp:	
   815                           
   816                           ; 1 bytes @ 0x48
   817  0068                     	ds	1
   818  0069                     sprintf@c:	
   819                           
   820                           ; 1 bytes @ 0x49
   821  0069                     	ds	1
   822  006A                     ??_dispRH:	
   823  006A                     ??_dispT:	
   824                           ; 0 bytes @ 0x4A
   825                           
   826  006A                     floor@expon:	
   827                           ; 0 bytes @ 0x4A
   828                           
   829                           
   830                           ; 2 bytes @ 0x4A
   831  006A                     	ds	2
   832  006C                     ?_exp:	
   833  006C                     exp@x:	
   834                           ; 3 bytes @ 0x4C
   835                           
   836                           
   837                           ; 3 bytes @ 0x4C
   838  006C                     	ds	3
   839  006F                     ??_exp:	
   840                           
   841                           ; 0 bytes @ 0x4F
   842  006F                     	ds	1
   843                           
   844                           	psect	maintext
   845  05B3                     __pmaintext:	
   846 ;;
   847 ;;Main: autosize = 0, tempsize = 2, incstack = 0, save=0
   848 ;;
   849 ;; *************** function _main *****************
   850 ;; Defined at:
   851 ;;		line 46 in file "Z:\CPE3201_SANIEL\PracticalActivities\PA7\LE7-3.c"
   852 ;; Parameters:    Size  Location     Type
   853 ;;		None
   854 ;; Auto vars:     Size  Location     Type
   855 ;;  T_temp          2   36[BANK1 ] unsigned int 
   856 ;;  RH_temp         2   34[BANK1 ] unsigned int 
   857 ;;  res             2   32[BANK1 ] int 
   858 ;;  temp            1   38[BANK1 ] unsigned char 
   859 ;; Return value:  Size  Location     Type
   860 ;;		None               void
   861 ;; Registers used:
   862 ;;		wreg, fsr0l, fsr0h, status,2, status,0, btemp+1, pclath, cstack
   863 ;; Tracked objects:
   864 ;;		On entry : 17F/0
   865 ;;		On exit  : 0/0
   866 ;;		Unchanged: 0/0
   867 ;; Data sizes:     COMMON   BANK0   BANK1   BANK3   BANK2
   868 ;;      Params:         0       0       0       0       0
   869 ;;      Locals:         0       0      10       0       0
   870 ;;      Temps:          0       0       2       0       0
   871 ;;      Totals:         0       0      12       0       0
   872 ;;Total ram usage:       12 bytes
   873 ;; Hardware stack levels required when called:    5
   874 ;; This function calls:
   875 ;;		_I2C_Receive
   876 ;;		_I2C_RepeatedStart
   877 ;;		_I2C_Send
   878 ;;		_I2C_Start
   879 ;;		_I2C_Stop
   880 ;;		___awtoft
   881 ;;		___ftadd
   882 ;;		___ftdiv
   883 ;;		___ftmul
   884 ;;		___fttol
   885 ;;		___lwtoft
   886 ;;		_delay_ms
   887 ;;		_dispRH
   888 ;;		_dispT
   889 ;;		_initLCD
   890 ;;		_init_I2C_Master
   891 ;;		_pow
   892 ;; This function is called by:
   893 ;;		Startup code after reset
   894 ;; This function uses a non-reentrant model
   895 ;;
   896                           
   897                           
   898                           ;psect for function _main
   899  05B3                     _main:	
   900                           
   901                           ;LE7-3.c: 47: int res = (int)(pow(2,14));
   902                           
   903                           ;incstack = 0
   904                           ; Regs used in _main: [wreg-fsr0h+status,2+status,0+btemp+1+pclath+cstack]
   905  05B3  3000               	movlw	0
   906  05B4  1683               	bsf	3,5	;RP0=1, select bank1
   907  05B5  1303               	bcf	3,6	;RP1=0, select bank1
   908  05B6  00AC               	movwf	pow@y^(0+128)
   909  05B7  3060               	movlw	96
   910  05B8  00AD               	movwf	(pow@y+1)^(0+128)
   911  05B9  3041               	movlw	65
   912  05BA  00AE               	movwf	(pow@y+2)^(0+128)
   913  05BB  3000               	movlw	0
   914  05BC  00A9               	movwf	pow@x^(0+128)
   915  05BD  3000               	movlw	0
   916  05BE  00AA               	movwf	(pow@x+1)^(0+128)
   917  05BF  3040               	movlw	64
   918  05C0  00AB               	movwf	(pow@x+2)^(0+128)
   919  05C1  120A  118A  22DA  120A  118A  	fcall	_pow
   920  05C6  1683               	bsf	3,5	;RP0=1, select bank1
   921  05C7  1303               	bcf	3,6	;RP1=0, select bank1
   922  05C8  0829               	movf	?_pow^(0+128),w
   923  05C9  00BD               	movwf	_main$646^(0+128)
   924  05CA  082A               	movf	(?_pow+1)^(0+128),w
   925  05CB  00BE               	movwf	(_main$646+1)^(0+128)
   926  05CC  082B               	movf	(?_pow+2)^(0+128),w
   927  05CD  00BF               	movwf	(_main$646+2)^(0+128)
   928                           
   929                           ;LE7-3.c: 47: int res = (int)(pow(2,14));
   930  05CE  083D               	movf	_main$646^(0+128),w
   931  05CF  1283               	bcf	3,5	;RP0=0, select bank0
   932  05D0  1303               	bcf	3,6	;RP1=0, select bank0
   933  05D1  00CD               	movwf	___fttol@f1
   934  05D2  1683               	bsf	3,5	;RP0=1, select bank1
   935  05D3  1303               	bcf	3,6	;RP1=0, select bank1
   936  05D4  083E               	movf	(_main$646+1)^(0+128),w
   937  05D5  1283               	bcf	3,5	;RP0=0, select bank0
   938  05D6  1303               	bcf	3,6	;RP1=0, select bank0
   939  05D7  00CE               	movwf	___fttol@f1+1
   940  05D8  1683               	bsf	3,5	;RP0=1, select bank1
   941  05D9  1303               	bcf	3,6	;RP1=0, select bank1
   942  05DA  083F               	movf	(_main$646+2)^(0+128),w
   943  05DB  1283               	bcf	3,5	;RP0=0, select bank0
   944  05DC  1303               	bcf	3,6	;RP1=0, select bank0
   945  05DD  00CF               	movwf	___fttol@f1+2
   946  05DE  120A  158A  2405  120A  118A  	fcall	___fttol
   947  05E3  1283               	bcf	3,5	;RP0=0, select bank0
   948  05E4  1303               	bcf	3,6	;RP1=0, select bank0
   949  05E5  084E               	movf	?___fttol+1,w
   950  05E6  1683               	bsf	3,5	;RP0=1, select bank1
   951  05E7  1303               	bcf	3,6	;RP1=0, select bank1
   952  05E8  01C1               	clrf	(main@res+1)^(0+128)
   953  05E9  07C1               	addwf	(main@res+1)^(0+128),f
   954  05EA  1283               	bcf	3,5	;RP0=0, select bank0
   955  05EB  1303               	bcf	3,6	;RP1=0, select bank0
   956  05EC  084D               	movf	?___fttol,w
   957  05ED  1683               	bsf	3,5	;RP0=1, select bank1
   958  05EE  1303               	bcf	3,6	;RP1=0, select bank1
   959  05EF  01C0               	clrf	main@res^(0+128)
   960  05F0  07C0               	addwf	main@res^(0+128),f
   961                           
   962                           ;LE7-3.c: 48: unsigned int RH_temp = 0x0000, T_temp = 0x0000;
   963  05F1  01C2               	clrf	main@RH_temp^(0+128)
   964  05F2  01C3               	clrf	(main@RH_temp+1)^(0+128)
   965  05F3  01C4               	clrf	main@T_temp^(0+128)
   966  05F4  01C5               	clrf	(main@T_temp+1)^(0+128)
   967                           
   968                           ;LE7-3.c: 49: unsigned char temp = 0x00;
   969  05F5  01C6               	clrf	main@temp^(0+128)
   970                           
   971                           ;LE7-3.c: 50: TRISB = 0x00;
   972  05F6  0186               	clrf	6	;volatile
   973                           
   974                           ;LE7-3.c: 51: TRISD = 0x00;
   975  05F7  0188               	clrf	8	;volatile
   976                           
   977                           ;LE7-3.c: 52: PORTB = 0x00;
   978  05F8  1283               	bcf	3,5	;RP0=0, select bank0
   979  05F9  1303               	bcf	3,6	;RP1=0, select bank0
   980  05FA  0186               	clrf	6	;volatile
   981                           
   982                           ;LE7-3.c: 53: PORTD = 0x00;
   983  05FB  0188               	clrf	8	;volatile
   984                           
   985                           ;LE7-3.c: 54: init_I2C_Master();
   986  05FC  160A  118A  27E0  120A  118A  	fcall	_init_I2C_Master
   987                           
   988                           ;LE7-3.c: 56: initLCD();
   989  0601  120A  158A  25C5  120A  118A  	fcall	_initLCD
   990  0606                     l2364:	
   991                           ;LE7-3.c: 58: for(;;)
   992                           
   993                           
   994                           ;LE7-3.c: 59: {
   995                           ;LE7-3.c: 61: I2C_Start();
   996  0606  160A  118A  27C2  120A  118A  	fcall	_I2C_Start
   997                           
   998                           ;LE7-3.c: 62: I2C_Send(0x80);
   999  060B  3080               	movlw	128
  1000  060C  120A  158A  204E  120A  118A  	fcall	_I2C_Send
  1001                           
  1002                           ;LE7-3.c: 63: I2C_Send(0xE5);
  1003  0611  30E5               	movlw	229
  1004  0612  120A  158A  204E  120A  118A  	fcall	_I2C_Send
  1005                           
  1006                           ;LE7-3.c: 64: I2C_RepeatedStart();
  1007  0617  160A  118A  27BB  120A  118A  	fcall	_I2C_RepeatedStart
  1008                           
  1009                           ;LE7-3.c: 65: I2C_Send(0x81);
  1010  061C  3081               	movlw	129
  1011  061D  120A  158A  204E  120A  118A  	fcall	_I2C_Send
  1012                           
  1013                           ;LE7-3.c: 66: RH_temp = I2C_Receive(1);
  1014  0622  3001               	movlw	1
  1015  0623  120A  158A  20CD  120A  118A  	fcall	_I2C_Receive
  1016  0628  1683               	bsf	3,5	;RP0=1, select bank1
  1017  0629  1303               	bcf	3,6	;RP1=0, select bank1
  1018  062A  00BB               	movwf	??_main^(0+128)
  1019  062B  01BC               	clrf	(??_main^(0+128)+1)
  1020  062C  083B               	movf	??_main^(0+128),w
  1021  062D  00C2               	movwf	main@RH_temp^(0+128)
  1022  062E  083C               	movf	(??_main+1)^(0+128),w
  1023  062F  00C3               	movwf	(main@RH_temp+1)^(0+128)
  1024                           
  1025                           ;LE7-3.c: 67: temp = I2C_Receive(0);
  1026  0630  3000               	movlw	0
  1027  0631  120A  158A  20CD  120A  118A  	fcall	_I2C_Receive
  1028  0636  1683               	bsf	3,5	;RP0=1, select bank1
  1029  0637  1303               	bcf	3,6	;RP1=0, select bank1
  1030  0638  00BB               	movwf	??_main^(0+128)
  1031  0639  083B               	movf	??_main^(0+128),w
  1032  063A  00C6               	movwf	main@temp^(0+128)
  1033                           
  1034                           ;LE7-3.c: 68: I2C_Stop();
  1035  063B  160A  118A  27C9  120A  118A  	fcall	_I2C_Stop
  1036                           
  1037                           ;LE7-3.c: 69: delay_ms(20);
  1038  0640  3014               	movlw	20
  1039  0641  00F0               	movwf	delay_ms@cnt
  1040  0642  3000               	movlw	0
  1041  0643  00F1               	movwf	delay_ms@cnt+1
  1042  0644  120A  158A  207D  120A  118A  	fcall	_delay_ms
  1043                           
  1044                           ;LE7-3.c: 71: RH_temp = RH_temp << 6;
  1045  0649  1683               	bsf	3,5	;RP0=1, select bank1
  1046  064A  1303               	bcf	3,6	;RP1=0, select bank1
  1047  064B  0843               	movf	(main@RH_temp+1)^(0+128),w
  1048  064C  00BC               	movwf	(??_main^(0+128)+1)
  1049  064D  0842               	movf	main@RH_temp^(0+128),w
  1050  064E  00BB               	movwf	??_main^(0+128)
  1051  064F  3006               	movlw	6
  1052  0650  00FF               	movwf	127
  1053  0651                     u2715:	
  1054  0651  1003               	clrc
  1055  0652  0DBB               	rlf	??_main^(0+128),f
  1056  0653  0DBC               	rlf	(??_main^(0+128)+1),f
  1057  0654  0BFF               	decfsz	127,f
  1058  0655  2E51               	goto	u2715
  1059  0656  083B               	movf	??_main^(0+128),w
  1060  0657  00C2               	movwf	main@RH_temp^(0+128)
  1061  0658  083C               	movf	(??_main+1)^(0+128),w
  1062  0659  00C3               	movwf	(main@RH_temp+1)^(0+128)
  1063                           
  1064                           ;LE7-3.c: 72: temp = temp >> 2;
  1065  065A  0846               	movf	main@temp^(0+128),w
  1066  065B  00BB               	movwf	??_main^(0+128)
  1067  065C  3002               	movlw	2
  1068  065D                     u2725:	
  1069  065D  1003               	clrc
  1070  065E  0CBB               	rrf	??_main^(0+128),f
  1071  065F  3EFF               	addlw	-1
  1072  0660  1D03               	skipz
  1073  0661  2E5D               	goto	u2725
  1074  0662  083B               	movf	??_main^(0+128),w
  1075  0663  00BC               	movwf	(??_main+1)^(0+128)
  1076  0664  083C               	movf	(??_main+1)^(0+128),w
  1077  0665  00C6               	movwf	main@temp^(0+128)
  1078                           
  1079                           ;LE7-3.c: 73: RH_temp = RH_temp | temp;
  1080  0666  0842               	movf	main@RH_temp^(0+128),w
  1081  0667  0446               	iorwf	main@temp^(0+128),w
  1082  0668  00C2               	movwf	main@RH_temp^(0+128)
  1083  0669  0843               	movf	(main@RH_temp+1)^(0+128),w
  1084  066A  00C3               	movwf	(main@RH_temp+1)^(0+128)
  1085                           
  1086                           ;LE7-3.c: 75: RH = (int)(-6+(125*((float)RH_temp/(float)res)));
  1087  066B  0843               	movf	(main@RH_temp+1)^(0+128),w
  1088  066C  01F9               	clrf	___lwtoft@c+1
  1089  066D  07F9               	addwf	___lwtoft@c+1,f
  1090  066E  0842               	movf	main@RH_temp^(0+128),w
  1091  066F  01F8               	clrf	___lwtoft@c
  1092  0670  07F8               	addwf	___lwtoft@c,f
  1093  0671  120A  158A  2069  120A  118A  	fcall	___lwtoft
  1094  0676  0878               	movf	?___lwtoft,w
  1095  0677  1283               	bcf	3,5	;RP0=0, select bank0
  1096  0678  1303               	bcf	3,6	;RP1=0, select bank0
  1097  0679  00A3               	movwf	___ftdiv@f1
  1098  067A  0879               	movf	?___lwtoft+1,w
  1099  067B  00A4               	movwf	___ftdiv@f1+1
  1100  067C  087A               	movf	?___lwtoft+2,w
  1101  067D  00A5               	movwf	___ftdiv@f1+2
  1102  067E  1683               	bsf	3,5	;RP0=1, select bank1
  1103  067F  1303               	bcf	3,6	;RP1=0, select bank1
  1104  0680  0841               	movf	(main@res+1)^(0+128),w
  1105  0681  01F9               	clrf	___awtoft@c+1
  1106  0682  07F9               	addwf	___awtoft@c+1,f
  1107  0683  0840               	movf	main@res^(0+128),w
  1108  0684  01F8               	clrf	___awtoft@c
  1109  0685  07F8               	addwf	___awtoft@c,f
  1110  0686  120A  118A  2004  120A  118A  	fcall	___awtoft
  1111  068B  0878               	movf	?___awtoft,w
  1112  068C  1283               	bcf	3,5	;RP0=0, select bank0
  1113  068D  1303               	bcf	3,6	;RP1=0, select bank0
  1114  068E  00A0               	movwf	___ftdiv@f2
  1115  068F  0879               	movf	?___awtoft+1,w
  1116  0690  00A1               	movwf	___ftdiv@f2+1
  1117  0691  087A               	movf	?___awtoft+2,w
  1118  0692  00A2               	movwf	___ftdiv@f2+2
  1119  0693  120A  158A  2678  120A  118A  	fcall	___ftdiv
  1120  0698  1283               	bcf	3,5	;RP0=0, select bank0
  1121  0699  1303               	bcf	3,6	;RP1=0, select bank0
  1122  069A  0820               	movf	?___ftdiv,w
  1123  069B  00B3               	movwf	___ftmul@f2
  1124  069C  0821               	movf	?___ftdiv+1,w
  1125  069D  00B4               	movwf	___ftmul@f2+1
  1126  069E  0822               	movf	?___ftdiv+2,w
  1127  069F  00B5               	movwf	___ftmul@f2+2
  1128  06A0  3000               	movlw	0
  1129  06A1  00B0               	movwf	___ftmul@f1
  1130  06A2  30FA               	movlw	250
  1131  06A3  00B1               	movwf	___ftmul@f1+1
  1132  06A4  3042               	movlw	66
  1133  06A5  00B2               	movwf	___ftmul@f1+2
  1134  06A6  120A  118A  2025  120A  118A  	fcall	___ftmul
  1135  06AB  1283               	bcf	3,5	;RP0=0, select bank0
  1136  06AC  1303               	bcf	3,6	;RP1=0, select bank0
  1137  06AD  0830               	movf	?___ftmul,w
  1138  06AE  00C3               	movwf	___ftadd@f2
  1139  06AF  0831               	movf	?___ftmul+1,w
  1140  06B0  00C4               	movwf	___ftadd@f2+1
  1141  06B1  0832               	movf	?___ftmul+2,w
  1142  06B2  00C5               	movwf	___ftadd@f2+2
  1143  06B3  3000               	movlw	0
  1144  06B4  00C0               	movwf	___ftadd@f1
  1145  06B5  30C0               	movlw	192
  1146  06B6  00C1               	movwf	___ftadd@f1+1
  1147  06B7  30C0               	movlw	192
  1148  06B8  00C2               	movwf	___ftadd@f1+2
  1149  06B9  120A  118A  21D1  120A  118A  	fcall	___ftadd
  1150  06BE  1283               	bcf	3,5	;RP0=0, select bank0
  1151  06BF  1303               	bcf	3,6	;RP1=0, select bank0
  1152  06C0  0840               	movf	?___ftadd,w
  1153  06C1  00CD               	movwf	___fttol@f1
  1154  06C2  0841               	movf	?___ftadd+1,w
  1155  06C3  00CE               	movwf	___fttol@f1+1
  1156  06C4  0842               	movf	?___ftadd+2,w
  1157  06C5  00CF               	movwf	___fttol@f1+2
  1158  06C6  120A  158A  2405  120A  118A  	fcall	___fttol
  1159  06CB  1283               	bcf	3,5	;RP0=0, select bank0
  1160  06CC  1303               	bcf	3,6	;RP1=0, select bank0
  1161  06CD  084E               	movf	?___fttol+1,w
  1162  06CE  1683               	bsf	3,5	;RP0=1, select bank1
  1163  06CF  1303               	bcf	3,6	;RP1=0, select bank1
  1164  06D0  01CB               	clrf	(_RH+1)^(0+128)
  1165  06D1  07CB               	addwf	(_RH+1)^(0+128),f
  1166  06D2  1283               	bcf	3,5	;RP0=0, select bank0
  1167  06D3  1303               	bcf	3,6	;RP1=0, select bank0
  1168  06D4  084D               	movf	?___fttol,w
  1169  06D5  1683               	bsf	3,5	;RP0=1, select bank1
  1170  06D6  1303               	bcf	3,6	;RP1=0, select bank1
  1171  06D7  01CA               	clrf	_RH^(0+128)
  1172  06D8  07CA               	addwf	_RH^(0+128),f
  1173                           
  1174                           ;LE7-3.c: 78: I2C_Start();
  1175  06D9  160A  118A  27C2  120A  118A  	fcall	_I2C_Start
  1176                           
  1177                           ;LE7-3.c: 79: I2C_Send(0x80);
  1178  06DE  3080               	movlw	128
  1179  06DF  120A  158A  204E  120A  118A  	fcall	_I2C_Send
  1180                           
  1181                           ;LE7-3.c: 80: I2C_Send(0xE3);
  1182  06E4  30E3               	movlw	227
  1183  06E5  120A  158A  204E  120A  118A  	fcall	_I2C_Send
  1184                           
  1185                           ;LE7-3.c: 81: I2C_Stop();
  1186  06EA  160A  118A  27C9  120A  118A  	fcall	_I2C_Stop
  1187                           
  1188                           ;LE7-3.c: 82: delay_ms(20);
  1189  06EF  3014               	movlw	20
  1190  06F0  00F0               	movwf	delay_ms@cnt
  1191  06F1  3000               	movlw	0
  1192  06F2  00F1               	movwf	delay_ms@cnt+1
  1193  06F3  120A  158A  207D  120A  118A  	fcall	_delay_ms
  1194                           
  1195                           ;LE7-3.c: 84: temp = 0x00;
  1196  06F8  1683               	bsf	3,5	;RP0=1, select bank1
  1197  06F9  1303               	bcf	3,6	;RP1=0, select bank1
  1198  06FA  01C6               	clrf	main@temp^(0+128)
  1199                           
  1200                           ;LE7-3.c: 87: I2C_Start();
  1201  06FB  160A  118A  27C2  120A  118A  	fcall	_I2C_Start
  1202                           
  1203                           ;LE7-3.c: 88: I2C_Send(0x80);
  1204  0700  3080               	movlw	128
  1205  0701  120A  158A  204E  120A  118A  	fcall	_I2C_Send
  1206                           
  1207                           ;LE7-3.c: 89: I2C_Send(0xE3);
  1208  0706  30E3               	movlw	227
  1209  0707  120A  158A  204E  120A  118A  	fcall	_I2C_Send
  1210                           
  1211                           ;LE7-3.c: 90: I2C_RepeatedStart();
  1212  070C  160A  118A  27BB  120A  118A  	fcall	_I2C_RepeatedStart
  1213                           
  1214                           ;LE7-3.c: 91: I2C_Send(0x81);
  1215  0711  3081               	movlw	129
  1216  0712  120A  158A  204E  120A  118A  	fcall	_I2C_Send
  1217                           
  1218                           ;LE7-3.c: 92: T_temp = I2C_Receive(1);
  1219  0717  3001               	movlw	1
  1220  0718  120A  158A  20CD  120A  118A  	fcall	_I2C_Receive
  1221  071D  1683               	bsf	3,5	;RP0=1, select bank1
  1222  071E  1303               	bcf	3,6	;RP1=0, select bank1
  1223  071F  00BB               	movwf	??_main^(0+128)
  1224  0720  01BC               	clrf	(??_main^(0+128)+1)
  1225  0721  083B               	movf	??_main^(0+128),w
  1226  0722  00C4               	movwf	main@T_temp^(0+128)
  1227  0723  083C               	movf	(??_main+1)^(0+128),w
  1228  0724  00C5               	movwf	(main@T_temp+1)^(0+128)
  1229                           
  1230                           ;LE7-3.c: 93: temp = I2C_Receive(0);
  1231  0725  3000               	movlw	0
  1232  0726  120A  158A  20CD  120A  118A  	fcall	_I2C_Receive
  1233  072B  1683               	bsf	3,5	;RP0=1, select bank1
  1234  072C  1303               	bcf	3,6	;RP1=0, select bank1
  1235  072D  00BB               	movwf	??_main^(0+128)
  1236  072E  083B               	movf	??_main^(0+128),w
  1237  072F  00C6               	movwf	main@temp^(0+128)
  1238                           
  1239                           ;LE7-3.c: 94: I2C_Stop();
  1240  0730  160A  118A  27C9  120A  118A  	fcall	_I2C_Stop
  1241                           
  1242                           ;LE7-3.c: 95: delay_ms(20);
  1243  0735  3014               	movlw	20
  1244  0736  00F0               	movwf	delay_ms@cnt
  1245  0737  3000               	movlw	0
  1246  0738  00F1               	movwf	delay_ms@cnt+1
  1247  0739  120A  158A  207D  120A  118A  	fcall	_delay_ms
  1248                           
  1249                           ;LE7-3.c: 97: T_temp = T_temp << 6;
  1250  073E  1683               	bsf	3,5	;RP0=1, select bank1
  1251  073F  1303               	bcf	3,6	;RP1=0, select bank1
  1252  0740  0845               	movf	(main@T_temp+1)^(0+128),w
  1253  0741  00BC               	movwf	(??_main^(0+128)+1)
  1254  0742  0844               	movf	main@T_temp^(0+128),w
  1255  0743  00BB               	movwf	??_main^(0+128)
  1256  0744  3006               	movlw	6
  1257  0745  00FF               	movwf	127
  1258  0746                     u2735:	
  1259  0746  1003               	clrc
  1260  0747  0DBB               	rlf	??_main^(0+128),f
  1261  0748  0DBC               	rlf	(??_main^(0+128)+1),f
  1262  0749  0BFF               	decfsz	127,f
  1263  074A  2F46               	goto	u2735
  1264  074B  083B               	movf	??_main^(0+128),w
  1265  074C  00C4               	movwf	main@T_temp^(0+128)
  1266  074D  083C               	movf	(??_main+1)^(0+128),w
  1267  074E  00C5               	movwf	(main@T_temp+1)^(0+128)
  1268                           
  1269                           ;LE7-3.c: 98: temp = temp >> 2;
  1270  074F  0846               	movf	main@temp^(0+128),w
  1271  0750  00BB               	movwf	??_main^(0+128)
  1272  0751  3002               	movlw	2
  1273  0752                     u2745:	
  1274  0752  1003               	clrc
  1275  0753  0CBB               	rrf	??_main^(0+128),f
  1276  0754  3EFF               	addlw	-1
  1277  0755  1D03               	skipz
  1278  0756  2F52               	goto	u2745
  1279  0757  083B               	movf	??_main^(0+128),w
  1280  0758  00BC               	movwf	(??_main+1)^(0+128)
  1281  0759  083C               	movf	(??_main+1)^(0+128),w
  1282  075A  00C6               	movwf	main@temp^(0+128)
  1283                           
  1284                           ;LE7-3.c: 99: T_temp = T_temp | temp;
  1285  075B  0844               	movf	main@T_temp^(0+128),w
  1286  075C  0446               	iorwf	main@temp^(0+128),w
  1287  075D  00C4               	movwf	main@T_temp^(0+128)
  1288  075E  0845               	movf	(main@T_temp+1)^(0+128),w
  1289  075F  00C5               	movwf	(main@T_temp+1)^(0+128)
  1290                           
  1291                           ;LE7-3.c: 101: T = (float)(-46.85+(175.72*((float)T_temp/(float)res)));
  1292  0760  3066               	movlw	102
  1293  0761  1283               	bcf	3,5	;RP0=0, select bank0
  1294  0762  1303               	bcf	3,6	;RP1=0, select bank0
  1295  0763  00C0               	movwf	___ftadd@f1
  1296  0764  303B               	movlw	59
  1297  0765  00C1               	movwf	___ftadd@f1+1
  1298  0766  30C2               	movlw	194
  1299  0767  00C2               	movwf	___ftadd@f1+2
  1300  0768  30B8               	movlw	184
  1301  0769  00B0               	movwf	___ftmul@f1
  1302  076A  302F               	movlw	47
  1303  076B  00B1               	movwf	___ftmul@f1+1
  1304  076C  3043               	movlw	67
  1305  076D  00B2               	movwf	___ftmul@f1+2
  1306  076E  1683               	bsf	3,5	;RP0=1, select bank1
  1307  076F  1303               	bcf	3,6	;RP1=0, select bank1
  1308  0770  0841               	movf	(main@res+1)^(0+128),w
  1309  0771  01F9               	clrf	___awtoft@c+1
  1310  0772  07F9               	addwf	___awtoft@c+1,f
  1311  0773  0840               	movf	main@res^(0+128),w
  1312  0774  01F8               	clrf	___awtoft@c
  1313  0775  07F8               	addwf	___awtoft@c,f
  1314  0776  120A  118A  2004  120A  118A  	fcall	___awtoft
  1315  077B  0878               	movf	?___awtoft,w
  1316  077C  1283               	bcf	3,5	;RP0=0, select bank0
  1317  077D  1303               	bcf	3,6	;RP1=0, select bank0
  1318  077E  00A0               	movwf	___ftdiv@f2
  1319  077F  0879               	movf	?___awtoft+1,w
  1320  0780  00A1               	movwf	___ftdiv@f2+1
  1321  0781  087A               	movf	?___awtoft+2,w
  1322  0782  00A2               	movwf	___ftdiv@f2+2
  1323  0783  1683               	bsf	3,5	;RP0=1, select bank1
  1324  0784  1303               	bcf	3,6	;RP1=0, select bank1
  1325  0785  0845               	movf	(main@T_temp+1)^(0+128),w
  1326  0786  01F9               	clrf	___lwtoft@c+1
  1327  0787  07F9               	addwf	___lwtoft@c+1,f
  1328  0788  0844               	movf	main@T_temp^(0+128),w
  1329  0789  01F8               	clrf	___lwtoft@c
  1330  078A  07F8               	addwf	___lwtoft@c,f
  1331  078B  120A  158A  2069  120A  118A  	fcall	___lwtoft
  1332  0790  0878               	movf	?___lwtoft,w
  1333  0791  1283               	bcf	3,5	;RP0=0, select bank0
  1334  0792  1303               	bcf	3,6	;RP1=0, select bank0
  1335  0793  00A3               	movwf	___ftdiv@f1
  1336  0794  0879               	movf	?___lwtoft+1,w
  1337  0795  00A4               	movwf	___ftdiv@f1+1
  1338  0796  087A               	movf	?___lwtoft+2,w
  1339  0797  00A5               	movwf	___ftdiv@f1+2
  1340  0798  120A  158A  2678  120A  118A  	fcall	___ftdiv
  1341  079D  1283               	bcf	3,5	;RP0=0, select bank0
  1342  079E  1303               	bcf	3,6	;RP1=0, select bank0
  1343  079F  0820               	movf	?___ftdiv,w
  1344  07A0  00B3               	movwf	___ftmul@f2
  1345  07A1  0821               	movf	?___ftdiv+1,w
  1346  07A2  00B4               	movwf	___ftmul@f2+1
  1347  07A3  0822               	movf	?___ftdiv+2,w
  1348  07A4  00B5               	movwf	___ftmul@f2+2
  1349  07A5  120A  118A  2025  120A  118A  	fcall	___ftmul
  1350  07AA  1283               	bcf	3,5	;RP0=0, select bank0
  1351  07AB  1303               	bcf	3,6	;RP1=0, select bank0
  1352  07AC  0830               	movf	?___ftmul,w
  1353  07AD  00C3               	movwf	___ftadd@f2
  1354  07AE  0831               	movf	?___ftmul+1,w
  1355  07AF  00C4               	movwf	___ftadd@f2+1
  1356  07B0  0832               	movf	?___ftmul+2,w
  1357  07B1  00C5               	movwf	___ftadd@f2+2
  1358  07B2  120A  118A  21D1  120A  118A  	fcall	___ftadd
  1359  07B7  1283               	bcf	3,5	;RP0=0, select bank0
  1360  07B8  1303               	bcf	3,6	;RP1=0, select bank0
  1361  07B9  0840               	movf	?___ftadd,w
  1362  07BA  1683               	bsf	3,5	;RP0=1, select bank1
  1363  07BB  1303               	bcf	3,6	;RP1=0, select bank1
  1364  07BC  00C7               	movwf	_T^(0+128)
  1365  07BD  1283               	bcf	3,5	;RP0=0, select bank0
  1366  07BE  1303               	bcf	3,6	;RP1=0, select bank0
  1367  07BF  0841               	movf	?___ftadd+1,w
  1368  07C0  1683               	bsf	3,5	;RP0=1, select bank1
  1369  07C1  1303               	bcf	3,6	;RP1=0, select bank1
  1370  07C2  00C8               	movwf	(_T+1)^(0+128)
  1371  07C3  1283               	bcf	3,5	;RP0=0, select bank0
  1372  07C4  1303               	bcf	3,6	;RP1=0, select bank0
  1373  07C5  0842               	movf	?___ftadd+2,w
  1374  07C6  1683               	bsf	3,5	;RP0=1, select bank1
  1375  07C7  1303               	bcf	3,6	;RP1=0, select bank1
  1376  07C8  00C9               	movwf	(_T+2)^(0+128)
  1377                           
  1378                           ;LE7-3.c: 104: I2C_Start();
  1379  07C9  160A  118A  27C2  120A  118A  	fcall	_I2C_Start
  1380                           
  1381                           ;LE7-3.c: 105: I2C_Send(0x80);
  1382  07CE  3080               	movlw	128
  1383  07CF  120A  158A  204E  120A  118A  	fcall	_I2C_Send
  1384                           
  1385                           ;LE7-3.c: 106: I2C_Send(0xE5);
  1386  07D4  30E5               	movlw	229
  1387  07D5  120A  158A  204E  120A  118A  	fcall	_I2C_Send
  1388                           
  1389                           ;LE7-3.c: 107: I2C_Stop();
  1390  07DA  160A  118A  27C9  120A  118A  	fcall	_I2C_Stop
  1391                           
  1392                           ;LE7-3.c: 108: delay_ms(20);
  1393  07DF  3014               	movlw	20
  1394  07E0  00F0               	movwf	delay_ms@cnt
  1395  07E1  3000               	movlw	0
  1396  07E2  00F1               	movwf	delay_ms@cnt+1
  1397  07E3  120A  158A  207D  120A  118A  	fcall	_delay_ms
  1398                           
  1399                           ;LE7-3.c: 110: dispRH();
  1400  07E8  120A  158A  2212  120A  118A  	fcall	_dispRH
  1401                           
  1402                           ;LE7-3.c: 111: dispT();
  1403  07ED  120A  158A  22BE  120A  118A  	fcall	_dispT
  1404                           
  1405                           ;LE7-3.c: 112: }
  1406  07F2  2E06               	goto	l2364
  1407  07F3                     __end_of_main:	
  1408                           
  1409                           	psect	text1
  1410  02DA                     __ptext1:	
  1411 ;; *************** function _pow *****************
  1412 ;; Defined at:
  1413 ;;		line 5 in file "C:\Program Files (x86)\Microchip\xc8\v1.33\sources\common\pow.c"
  1414 ;; Parameters:    Size  Location     Type
  1415 ;;  x               3    9[BANK1 ] unsigned char 
  1416 ;;  y               3   12[BANK1 ] unsigned char 
  1417 ;; Auto vars:     Size  Location     Type
  1418 ;;  yi              4   23[BANK1 ] unsigned long 
  1419 ;;  sign            1   22[BANK1 ] unsigned char 
  1420 ;; Return value:  Size  Location     Type
  1421 ;;                  3    9[BANK1 ] unsigned char 
  1422 ;; Registers used:
  1423 ;;		wreg, fsr0l, fsr0h, status,2, status,0, btemp+1, pclath, cstack
  1424 ;; Tracked objects:
  1425 ;;		On entry : 0/0
  1426 ;;		On exit  : 0/0
  1427 ;;		Unchanged: 0/0
  1428 ;; Data sizes:     COMMON   BANK0   BANK1   BANK3   BANK2
  1429 ;;      Params:         0       0       6       0       0
  1430 ;;      Locals:         0       0      11       0       0
  1431 ;;      Temps:          0       0       1       0       0
  1432 ;;      Totals:         0       0      18       0       0
  1433 ;;Total ram usage:       18 bytes
  1434 ;; Hardware stack levels used:    1
  1435 ;; Hardware stack levels required when called:    4
  1436 ;; This function calls:
  1437 ;;		___ftge
  1438 ;;		___ftmul
  1439 ;;		___ftneg
  1440 ;;		___fttol
  1441 ;;		___lltoft
  1442 ;;		_exp
  1443 ;;		_log
  1444 ;; This function is called by:
  1445 ;;		_main
  1446 ;; This function uses a non-reentrant model
  1447 ;;
  1448                           
  1449                           
  1450                           ;psect for function _pow
  1451  02DA                     _pow:	
  1452                           
  1453                           ;incstack = 0
  1454                           ; Regs used in _pow: [wreg-fsr0h+status,2+status,0+btemp+1+pclath+cstack]
  1455  02DA  1683               	bsf	3,5	;RP0=1, select bank1
  1456  02DB  1303               	bcf	3,6	;RP1=0, select bank1
  1457  02DC  01B6               	clrf	pow@sign^(0+128)
  1458  02DD  082B               	movf	(pow@x+2)^(0+128),w
  1459  02DE  042A               	iorwf	(pow@x+1)^(0+128),w
  1460  02DF  0429               	iorwf	pow@x^(0+128),w
  1461  02E0  1D03               	skipz
  1462  02E1  2B04               	goto	l2240
  1463  02E2  3000               	movlw	0
  1464  02E3  00F0               	movwf	___ftge@ff1
  1465  02E4  3000               	movlw	0
  1466  02E5  00F1               	movwf	___ftge@ff1+1
  1467  02E6  3000               	movlw	0
  1468  02E7  00F2               	movwf	___ftge@ff1+2
  1469  02E8  082C               	movf	pow@y^(0+128),w
  1470  02E9  00F3               	movwf	___ftge@ff2
  1471  02EA  082D               	movf	(pow@y+1)^(0+128),w
  1472  02EB  00F4               	movwf	___ftge@ff2+1
  1473  02EC  082E               	movf	(pow@y+2)^(0+128),w
  1474  02ED  00F5               	movwf	___ftge@ff2+2
  1475  02EE  120A  158A  2261  120A  118A  	fcall	___ftge
  1476  02F3  1C03               	btfss	3,0
  1477  02F4  2AFB               	goto	l599
  1478  02F5  3021               	movlw	33
  1479  02F6  1683               	bsf	3,5	;RP0=1, select bank1
  1480  02F7  1303               	bcf	3,6	;RP1=0, select bank1
  1481  02F8  00CC               	movwf	_errno^(0+128)
  1482  02F9  3000               	movlw	0
  1483  02FA  00CD               	movwf	(_errno^(0+128)+1)
  1484  02FB                     l599:	
  1485  02FB  3000               	movlw	0
  1486  02FC  1683               	bsf	3,5	;RP0=1, select bank1
  1487  02FD  1303               	bcf	3,6	;RP1=0, select bank1
  1488  02FE  00A9               	movwf	?_pow^(0+128)
  1489  02FF  3000               	movlw	0
  1490  0300  00AA               	movwf	(?_pow+1)^(0+128)
  1491  0301  3000               	movlw	0
  1492  0302  00AB               	movwf	(?_pow+2)^(0+128)
  1493  0303  0008               	return
  1494  0304                     l2240:	
  1495  0304  082E               	movf	(pow@y+2)^(0+128),w
  1496  0305  042D               	iorwf	(pow@y+1)^(0+128),w
  1497  0306  042C               	iorwf	pow@y^(0+128),w
  1498  0307  1D03               	skipz
  1499  0308  2B10               	goto	l2246
  1500  0309  3000               	movlw	0
  1501  030A  00A9               	movwf	?_pow^(0+128)
  1502  030B  3080               	movlw	128
  1503  030C  00AA               	movwf	(?_pow+1)^(0+128)
  1504  030D  303F               	movlw	63
  1505  030E  00AB               	movwf	(?_pow+2)^(0+128)
  1506  030F  0008               	return
  1507  0310                     l2246:	
  1508  0310  0829               	movf	pow@x^(0+128),w
  1509  0311  00F0               	movwf	___ftge@ff1
  1510  0312  082A               	movf	(pow@x+1)^(0+128),w
  1511  0313  00F1               	movwf	___ftge@ff1+1
  1512  0314  082B               	movf	(pow@x+2)^(0+128),w
  1513  0315  00F2               	movwf	___ftge@ff1+2
  1514  0316  3000               	movlw	0
  1515  0317  00F3               	movwf	___ftge@ff2
  1516  0318  3000               	movlw	0
  1517  0319  00F4               	movwf	___ftge@ff2+1
  1518  031A  3000               	movlw	0
  1519  031B  00F5               	movwf	___ftge@ff2+2
  1520  031C  120A  158A  2261  120A  118A  	fcall	___ftge
  1521  0321  1803               	btfsc	3,0
  1522  0322  2B90               	goto	l2258
  1523  0323  1683               	bsf	3,5	;RP0=1, select bank1
  1524  0324  1303               	bcf	3,6	;RP1=0, select bank1
  1525  0325  082C               	movf	pow@y^(0+128),w
  1526  0326  1283               	bcf	3,5	;RP0=0, select bank0
  1527  0327  1303               	bcf	3,6	;RP1=0, select bank0
  1528  0328  00CD               	movwf	___fttol@f1
  1529  0329  1683               	bsf	3,5	;RP0=1, select bank1
  1530  032A  1303               	bcf	3,6	;RP1=0, select bank1
  1531  032B  082D               	movf	(pow@y+1)^(0+128),w
  1532  032C  1283               	bcf	3,5	;RP0=0, select bank0
  1533  032D  1303               	bcf	3,6	;RP1=0, select bank0
  1534  032E  00CE               	movwf	___fttol@f1+1
  1535  032F  1683               	bsf	3,5	;RP0=1, select bank1
  1536  0330  1303               	bcf	3,6	;RP1=0, select bank1
  1537  0331  082E               	movf	(pow@y+2)^(0+128),w
  1538  0332  1283               	bcf	3,5	;RP0=0, select bank0
  1539  0333  1303               	bcf	3,6	;RP1=0, select bank0
  1540  0334  00CF               	movwf	___fttol@f1+2
  1541  0335  120A  158A  2405  120A  118A  	fcall	___fttol
  1542  033A  1283               	bcf	3,5	;RP0=0, select bank0
  1543  033B  1303               	bcf	3,6	;RP1=0, select bank0
  1544  033C  0850               	movf	?___fttol+3,w
  1545  033D  1683               	bsf	3,5	;RP0=1, select bank1
  1546  033E  1303               	bcf	3,6	;RP1=0, select bank1
  1547  033F  00BA               	movwf	(pow@yi+3)^(0+128)
  1548  0340  1283               	bcf	3,5	;RP0=0, select bank0
  1549  0341  1303               	bcf	3,6	;RP1=0, select bank0
  1550  0342  084F               	movf	?___fttol+2,w
  1551  0343  1683               	bsf	3,5	;RP0=1, select bank1
  1552  0344  1303               	bcf	3,6	;RP1=0, select bank1
  1553  0345  00B9               	movwf	(pow@yi+2)^(0+128)
  1554  0346  1283               	bcf	3,5	;RP0=0, select bank0
  1555  0347  1303               	bcf	3,6	;RP1=0, select bank0
  1556  0348  084E               	movf	?___fttol+1,w
  1557  0349  1683               	bsf	3,5	;RP0=1, select bank1
  1558  034A  1303               	bcf	3,6	;RP1=0, select bank1
  1559  034B  00B8               	movwf	(pow@yi+1)^(0+128)
  1560  034C  1283               	bcf	3,5	;RP0=0, select bank0
  1561  034D  1303               	bcf	3,6	;RP1=0, select bank0
  1562  034E  084D               	movf	?___fttol,w
  1563  034F  1683               	bsf	3,5	;RP0=1, select bank1
  1564  0350  1303               	bcf	3,6	;RP1=0, select bank1
  1565  0351  00B7               	movwf	pow@yi^(0+128)
  1566  0352  083A               	movf	(pow@yi+3)^(0+128),w
  1567  0353  00FB               	movwf	___lltoft@c+3
  1568  0354  0839               	movf	(pow@yi+2)^(0+128),w
  1569  0355  00FA               	movwf	___lltoft@c+2
  1570  0356  0838               	movf	(pow@yi+1)^(0+128),w
  1571  0357  00F9               	movwf	___lltoft@c+1
  1572  0358  0837               	movf	pow@yi^(0+128),w
  1573  0359  00F8               	movwf	___lltoft@c
  1574  035A  120A  158A  20F3  120A  118A  	fcall	___lltoft
  1575  035F  1683               	bsf	3,5	;RP0=1, select bank1
  1576  0360  1303               	bcf	3,6	;RP1=0, select bank1
  1577  0361  082E               	movf	(pow@y+2)^(0+128),w
  1578  0362  067A               	xorwf	?___lltoft+2,w
  1579  0363  1D03               	skipz
  1580  0364  2B6B               	goto	u2655
  1581  0365  082D               	movf	(pow@y+1)^(0+128),w
  1582  0366  0679               	xorwf	?___lltoft+1,w
  1583  0367  1D03               	skipz
  1584  0368  2B6B               	goto	u2655
  1585  0369  082C               	movf	pow@y^(0+128),w
  1586  036A  0678               	xorwf	?___lltoft,w
  1587  036B                     u2655:	
  1588  036B  1903               	skipnz
  1589  036C  2B78               	goto	l2254
  1590  036D  3021               	movlw	33
  1591  036E  00CC               	movwf	_errno^(0+128)
  1592  036F  3000               	movlw	0
  1593  0370  00CD               	movwf	(_errno^(0+128)+1)
  1594  0371  3000               	movlw	0
  1595  0372  00A9               	movwf	?_pow^(0+128)
  1596  0373  3000               	movlw	0
  1597  0374  00AA               	movwf	(?_pow+1)^(0+128)
  1598  0375  3000               	movlw	0
  1599  0376  00AB               	movwf	(?_pow+2)^(0+128)
  1600  0377  0008               	return
  1601  0378                     l2254:	
  1602  0378  0837               	movf	pow@yi^(0+128),w
  1603  0379  3901               	andlw	1
  1604  037A  00AF               	movwf	??_pow^(0+128)
  1605  037B  082F               	movf	??_pow^(0+128),w
  1606  037C  00B6               	movwf	pow@sign^(0+128)
  1607  037D  0829               	movf	pow@x^(0+128),w
  1608  037E  00F0               	movwf	___ftneg@f1
  1609  037F  082A               	movf	(pow@x+1)^(0+128),w
  1610  0380  00F1               	movwf	___ftneg@f1+1
  1611  0381  082B               	movf	(pow@x+2)^(0+128),w
  1612  0382  00F2               	movwf	___ftneg@f1+2
  1613  0383  160A  118A  27D8  120A  118A  	fcall	___ftneg
  1614  0388  0870               	movf	?___ftneg,w
  1615  0389  1683               	bsf	3,5	;RP0=1, select bank1
  1616  038A  1303               	bcf	3,6	;RP1=0, select bank1
  1617  038B  00A9               	movwf	pow@x^(0+128)
  1618  038C  0871               	movf	?___ftneg+1,w
  1619  038D  00AA               	movwf	(pow@x+1)^(0+128)
  1620  038E  0872               	movf	?___ftneg+2,w
  1621  038F  00AB               	movwf	(pow@x+2)^(0+128)
  1622  0390                     l2258:	
  1623  0390  1683               	bsf	3,5	;RP0=1, select bank1
  1624  0391  1303               	bcf	3,6	;RP1=0, select bank1
  1625  0392  0829               	movf	pow@x^(0+128),w
  1626  0393  1283               	bcf	3,5	;RP0=0, select bank0
  1627  0394  1303               	bcf	3,6	;RP1=0, select bank0
  1628  0395  00D7               	movwf	log@x
  1629  0396  1683               	bsf	3,5	;RP0=1, select bank1
  1630  0397  1303               	bcf	3,6	;RP1=0, select bank1
  1631  0398  082A               	movf	(pow@x+1)^(0+128),w
  1632  0399  1283               	bcf	3,5	;RP0=0, select bank0
  1633  039A  1303               	bcf	3,6	;RP1=0, select bank0
  1634  039B  00D8               	movwf	log@x+1
  1635  039C  1683               	bsf	3,5	;RP0=1, select bank1
  1636  039D  1303               	bcf	3,6	;RP1=0, select bank1
  1637  039E  082B               	movf	(pow@x+2)^(0+128),w
  1638  039F  1283               	bcf	3,5	;RP0=0, select bank0
  1639  03A0  1303               	bcf	3,6	;RP1=0, select bank0
  1640  03A1  00D9               	movwf	log@x+2
  1641  03A2  120A  158A  2730  120A  118A  	fcall	_log
  1642  03A7  1283               	bcf	3,5	;RP0=0, select bank0
  1643  03A8  1303               	bcf	3,6	;RP1=0, select bank0
  1644  03A9  0857               	movf	?_log,w
  1645  03AA  1683               	bsf	3,5	;RP0=1, select bank1
  1646  03AB  1303               	bcf	3,6	;RP1=0, select bank1
  1647  03AC  00B0               	movwf	_pow$647^(0+128)
  1648  03AD  1283               	bcf	3,5	;RP0=0, select bank0
  1649  03AE  1303               	bcf	3,6	;RP1=0, select bank0
  1650  03AF  0858               	movf	?_log+1,w
  1651  03B0  1683               	bsf	3,5	;RP0=1, select bank1
  1652  03B1  1303               	bcf	3,6	;RP1=0, select bank1
  1653  03B2  00B1               	movwf	(_pow$647+1)^(0+128)
  1654  03B3  1283               	bcf	3,5	;RP0=0, select bank0
  1655  03B4  1303               	bcf	3,6	;RP1=0, select bank0
  1656  03B5  0859               	movf	?_log+2,w
  1657  03B6  1683               	bsf	3,5	;RP0=1, select bank1
  1658  03B7  1303               	bcf	3,6	;RP1=0, select bank1
  1659  03B8  00B2               	movwf	(_pow$647+2)^(0+128)
  1660  03B9  082C               	movf	pow@y^(0+128),w
  1661  03BA  1283               	bcf	3,5	;RP0=0, select bank0
  1662  03BB  1303               	bcf	3,6	;RP1=0, select bank0
  1663  03BC  00B0               	movwf	___ftmul@f1
  1664  03BD  1683               	bsf	3,5	;RP0=1, select bank1
  1665  03BE  1303               	bcf	3,6	;RP1=0, select bank1
  1666  03BF  082D               	movf	(pow@y+1)^(0+128),w
  1667  03C0  1283               	bcf	3,5	;RP0=0, select bank0
  1668  03C1  1303               	bcf	3,6	;RP1=0, select bank0
  1669  03C2  00B1               	movwf	___ftmul@f1+1
  1670  03C3  1683               	bsf	3,5	;RP0=1, select bank1
  1671  03C4  1303               	bcf	3,6	;RP1=0, select bank1
  1672  03C5  082E               	movf	(pow@y+2)^(0+128),w
  1673  03C6  1283               	bcf	3,5	;RP0=0, select bank0
  1674  03C7  1303               	bcf	3,6	;RP1=0, select bank0
  1675  03C8  00B2               	movwf	___ftmul@f1+2
  1676  03C9  1683               	bsf	3,5	;RP0=1, select bank1
  1677  03CA  1303               	bcf	3,6	;RP1=0, select bank1
  1678  03CB  0830               	movf	_pow$647^(0+128),w
  1679  03CC  1283               	bcf	3,5	;RP0=0, select bank0
  1680  03CD  1303               	bcf	3,6	;RP1=0, select bank0
  1681  03CE  00B3               	movwf	___ftmul@f2
  1682  03CF  1683               	bsf	3,5	;RP0=1, select bank1
  1683  03D0  1303               	bcf	3,6	;RP1=0, select bank1
  1684  03D1  0831               	movf	(_pow$647+1)^(0+128),w
  1685  03D2  1283               	bcf	3,5	;RP0=0, select bank0
  1686  03D3  1303               	bcf	3,6	;RP1=0, select bank0
  1687  03D4  00B4               	movwf	___ftmul@f2+1
  1688  03D5  1683               	bsf	3,5	;RP0=1, select bank1
  1689  03D6  1303               	bcf	3,6	;RP1=0, select bank1
  1690  03D7  0832               	movf	(_pow$647+2)^(0+128),w
  1691  03D8  1283               	bcf	3,5	;RP0=0, select bank0
  1692  03D9  1303               	bcf	3,6	;RP1=0, select bank0
  1693  03DA  00B5               	movwf	___ftmul@f2+2
  1694  03DB  120A  118A  2025  120A  118A  	fcall	___ftmul
  1695  03E0  1283               	bcf	3,5	;RP0=0, select bank0
  1696  03E1  1303               	bcf	3,6	;RP1=0, select bank0
  1697  03E2  0830               	movf	?___ftmul,w
  1698  03E3  1683               	bsf	3,5	;RP0=1, select bank1
  1699  03E4  1303               	bcf	3,6	;RP1=0, select bank1
  1700  03E5  00B3               	movwf	_pow$648^(0+128)
  1701  03E6  1283               	bcf	3,5	;RP0=0, select bank0
  1702  03E7  1303               	bcf	3,6	;RP1=0, select bank0
  1703  03E8  0831               	movf	?___ftmul+1,w
  1704  03E9  1683               	bsf	3,5	;RP0=1, select bank1
  1705  03EA  1303               	bcf	3,6	;RP1=0, select bank1
  1706  03EB  00B4               	movwf	(_pow$648+1)^(0+128)
  1707  03EC  1283               	bcf	3,5	;RP0=0, select bank0
  1708  03ED  1303               	bcf	3,6	;RP1=0, select bank0
  1709  03EE  0832               	movf	?___ftmul+2,w
  1710  03EF  1683               	bsf	3,5	;RP0=1, select bank1
  1711  03F0  1303               	bcf	3,6	;RP1=0, select bank1
  1712  03F1  00B5               	movwf	(_pow$648+2)^(0+128)
  1713  03F2  0833               	movf	_pow$648^(0+128),w
  1714  03F3  1283               	bcf	3,5	;RP0=0, select bank0
  1715  03F4  1303               	bcf	3,6	;RP1=0, select bank0
  1716  03F5  00EC               	movwf	exp@x
  1717  03F6  1683               	bsf	3,5	;RP0=1, select bank1
  1718  03F7  1303               	bcf	3,6	;RP1=0, select bank1
  1719  03F8  0834               	movf	(_pow$648+1)^(0+128),w
  1720  03F9  1283               	bcf	3,5	;RP0=0, select bank0
  1721  03FA  1303               	bcf	3,6	;RP1=0, select bank0
  1722  03FB  00ED               	movwf	exp@x+1
  1723  03FC  1683               	bsf	3,5	;RP0=1, select bank1
  1724  03FD  1303               	bcf	3,6	;RP1=0, select bank1
  1725  03FE  0835               	movf	(_pow$648+2)^(0+128),w
  1726  03FF  1283               	bcf	3,5	;RP0=0, select bank0
  1727  0400  1303               	bcf	3,6	;RP1=0, select bank0
  1728  0401  00EE               	movwf	exp@x+2
  1729  0402  120A  118A  242E  120A  118A  	fcall	_exp
  1730  0407  1283               	bcf	3,5	;RP0=0, select bank0
  1731  0408  1303               	bcf	3,6	;RP1=0, select bank0
  1732  0409  086C               	movf	?_exp,w
  1733  040A  1683               	bsf	3,5	;RP0=1, select bank1
  1734  040B  1303               	bcf	3,6	;RP1=0, select bank1
  1735  040C  00A9               	movwf	pow@x^(0+128)
  1736  040D  1283               	bcf	3,5	;RP0=0, select bank0
  1737  040E  1303               	bcf	3,6	;RP1=0, select bank0
  1738  040F  086D               	movf	?_exp+1,w
  1739  0410  1683               	bsf	3,5	;RP0=1, select bank1
  1740  0411  1303               	bcf	3,6	;RP1=0, select bank1
  1741  0412  00AA               	movwf	(pow@x+1)^(0+128)
  1742  0413  1283               	bcf	3,5	;RP0=0, select bank0
  1743  0414  1303               	bcf	3,6	;RP1=0, select bank0
  1744  0415  086E               	movf	?_exp+2,w
  1745  0416  1683               	bsf	3,5	;RP0=1, select bank1
  1746  0417  1303               	bcf	3,6	;RP1=0, select bank1
  1747  0418  00AB               	movwf	(pow@x+2)^(0+128)
  1748  0419  0836               	movf	pow@sign^(0+128),w
  1749  041A  1903               	btfsc	3,2
  1750  041B  0008               	return
  1751  041C  0829               	movf	pow@x^(0+128),w
  1752  041D  00F0               	movwf	___ftneg@f1
  1753  041E  082A               	movf	(pow@x+1)^(0+128),w
  1754  041F  00F1               	movwf	___ftneg@f1+1
  1755  0420  082B               	movf	(pow@x+2)^(0+128),w
  1756  0421  00F2               	movwf	___ftneg@f1+2
  1757  0422  160A  118A  27D8   	fcall	___ftneg
  1758  0425  0870               	movf	?___ftneg,w
  1759  0426  1683               	bsf	3,5	;RP0=1, select bank1
  1760  0427  1303               	bcf	3,6	;RP1=0, select bank1
  1761  0428  00A9               	movwf	?_pow^(0+128)
  1762  0429  0871               	movf	?___ftneg+1,w
  1763  042A  00AA               	movwf	(?_pow+1)^(0+128)
  1764  042B  0872               	movf	?___ftneg+2,w
  1765  042C  00AB               	movwf	(?_pow+2)^(0+128)
  1766  042D  0008               	return
  1767  042E                     __end_of_pow:	
  1768                           
  1769                           	psect	text2
  1770  0F30                     __ptext2:	
  1771 ;; *************** function _log *****************
  1772 ;; Defined at:
  1773 ;;		line 5 in file "C:\Program Files (x86)\Microchip\xc8\v1.33\sources\common\log.c"
  1774 ;; Parameters:    Size  Location     Type
  1775 ;;  x               3   55[BANK0 ] unsigned char 
  1776 ;; Auto vars:     Size  Location     Type
  1777 ;;  exponent        2   59[BANK0 ] int 
  1778 ;; Return value:  Size  Location     Type
  1779 ;;                  3   55[BANK0 ] int 
  1780 ;; Registers used:
  1781 ;;		wreg, fsr0l, fsr0h, status,2, status,0, btemp+1, pclath, cstack
  1782 ;; Tracked objects:
  1783 ;;		On entry : 0/0
  1784 ;;		On exit  : 0/0
  1785 ;;		Unchanged: 0/0
  1786 ;; Data sizes:     COMMON   BANK0   BANK1   BANK3   BANK2
  1787 ;;      Params:         0       3       0       0       0
  1788 ;;      Locals:         0       2       0       0       0
  1789 ;;      Temps:          0       1       0       0       0
  1790 ;;      Totals:         0       6       0       0       0
  1791 ;;Total ram usage:        6 bytes
  1792 ;; Hardware stack levels used:    1
  1793 ;; Hardware stack levels required when called:    3
  1794 ;; This function calls:
  1795 ;;		___awtoft
  1796 ;;		___ftadd
  1797 ;;		___ftge
  1798 ;;		___ftmul
  1799 ;;		_eval_poly
  1800 ;;		_frexp
  1801 ;; This function is called by:
  1802 ;;		_pow
  1803 ;; This function uses a non-reentrant model
  1804 ;;
  1805                           
  1806                           
  1807                           ;psect for function _log
  1808  0F30                     _log:	
  1809                           
  1810                           ;incstack = 0
  1811                           ; Regs used in _log: [wreg-fsr0h+status,2+status,0+btemp+1+pclath+cstack]
  1812  0F30  1283               	bcf	3,5	;RP0=0, select bank0
  1813  0F31  1303               	bcf	3,6	;RP1=0, select bank0
  1814  0F32  0857               	movf	log@x,w
  1815  0F33  00F0               	movwf	___ftge@ff1
  1816  0F34  0858               	movf	log@x+1,w
  1817  0F35  00F1               	movwf	___ftge@ff1+1
  1818  0F36  0859               	movf	log@x+2,w
  1819  0F37  00F2               	movwf	___ftge@ff1+2
  1820  0F38  3000               	movlw	0
  1821  0F39  00F3               	movwf	___ftge@ff2
  1822  0F3A  3000               	movlw	0
  1823  0F3B  00F4               	movwf	___ftge@ff2+1
  1824  0F3C  3000               	movlw	0
  1825  0F3D  00F5               	movwf	___ftge@ff2+2
  1826  0F3E  120A  158A  2261  120A  158A  	fcall	___ftge
  1827  0F43  1803               	btfsc	3,0
  1828  0F44  2F54               	goto	l2160
  1829  0F45  3021               	movlw	33
  1830  0F46  1683               	bsf	3,5	;RP0=1, select bank1
  1831  0F47  1303               	bcf	3,6	;RP1=0, select bank1
  1832  0F48  00CC               	movwf	_errno^(0+128)
  1833  0F49  3000               	movlw	0
  1834  0F4A  00CD               	movwf	(_errno^(0+128)+1)
  1835  0F4B  3000               	movlw	0
  1836  0F4C  1283               	bcf	3,5	;RP0=0, select bank0
  1837  0F4D  1303               	bcf	3,6	;RP1=0, select bank0
  1838  0F4E  00D7               	movwf	?_log
  1839  0F4F  3000               	movlw	0
  1840  0F50  00D8               	movwf	?_log+1
  1841  0F51  3000               	movlw	0
  1842  0F52  00D9               	movwf	?_log+2
  1843  0F53  0008               	return
  1844  0F54                     l2160:	
  1845  0F54  1283               	bcf	3,5	;RP0=0, select bank0
  1846  0F55  1303               	bcf	3,6	;RP1=0, select bank0
  1847  0F56  0859               	movf	log@x+2,w
  1848  0F57  0458               	iorwf	log@x+1,w
  1849  0F58  0457               	iorwf	log@x,w
  1850  0F59  1D03               	skipz
  1851  0F5A  2F6A               	goto	l2166
  1852  0F5B  3022               	movlw	34
  1853  0F5C  1683               	bsf	3,5	;RP0=1, select bank1
  1854  0F5D  1303               	bcf	3,6	;RP1=0, select bank1
  1855  0F5E  00CC               	movwf	_errno^(0+128)
  1856  0F5F  3000               	movlw	0
  1857  0F60  00CD               	movwf	(_errno^(0+128)+1)
  1858  0F61  3000               	movlw	0
  1859  0F62  1283               	bcf	3,5	;RP0=0, select bank0
  1860  0F63  1303               	bcf	3,6	;RP1=0, select bank0
  1861  0F64  00D7               	movwf	?_log
  1862  0F65  3000               	movlw	0
  1863  0F66  00D8               	movwf	?_log+1
  1864  0F67  3000               	movlw	0
  1865  0F68  00D9               	movwf	?_log+2
  1866  0F69  0008               	return
  1867  0F6A                     l2166:	
  1868  0F6A  3000               	movlw	0
  1869  0F6B  00C0               	movwf	___ftadd@f1
  1870  0F6C  3080               	movlw	128
  1871  0F6D  00C1               	movwf	___ftadd@f1+1
  1872  0F6E  30BF               	movlw	191
  1873  0F6F  00C2               	movwf	___ftadd@f1+2
  1874  0F70  3000               	movlw	0
  1875  0F71  00B0               	movwf	___ftmul@f1
  1876  0F72  3000               	movlw	0
  1877  0F73  00B1               	movwf	___ftmul@f1+1
  1878  0F74  3040               	movlw	64
  1879  0F75  00B2               	movwf	___ftmul@f1+2
  1880  0F76  305B               	movlw	log@exponent& (0+255)
  1881  0F77  00DA               	movwf	??_log
  1882  0F78  085A               	movf	??_log,w
  1883  0F79  00F3               	movwf	frexp@eptr
  1884  0F7A  0857               	movf	log@x,w
  1885  0F7B  00F0               	movwf	frexp@value
  1886  0F7C  0858               	movf	log@x+1,w
  1887  0F7D  00F1               	movwf	frexp@value+1
  1888  0F7E  0859               	movf	log@x+2,w
  1889  0F7F  00F2               	movwf	frexp@value+2
  1890  0F80  120A  158A  2190  120A  158A  	fcall	_frexp
  1891  0F85  0870               	movf	?_frexp,w
  1892  0F86  1283               	bcf	3,5	;RP0=0, select bank0
  1893  0F87  1303               	bcf	3,6	;RP1=0, select bank0
  1894  0F88  00B3               	movwf	___ftmul@f2
  1895  0F89  0871               	movf	?_frexp+1,w
  1896  0F8A  00B4               	movwf	___ftmul@f2+1
  1897  0F8B  0872               	movf	?_frexp+2,w
  1898  0F8C  00B5               	movwf	___ftmul@f2+2
  1899  0F8D  120A  118A  2025  120A  158A  	fcall	___ftmul
  1900  0F92  1283               	bcf	3,5	;RP0=0, select bank0
  1901  0F93  1303               	bcf	3,6	;RP1=0, select bank0
  1902  0F94  0830               	movf	?___ftmul,w
  1903  0F95  00C3               	movwf	___ftadd@f2
  1904  0F96  0831               	movf	?___ftmul+1,w
  1905  0F97  00C4               	movwf	___ftadd@f2+1
  1906  0F98  0832               	movf	?___ftmul+2,w
  1907  0F99  00C5               	movwf	___ftadd@f2+2
  1908  0F9A  120A  118A  21D1  120A  158A  	fcall	___ftadd
  1909  0F9F  1283               	bcf	3,5	;RP0=0, select bank0
  1910  0FA0  1303               	bcf	3,6	;RP1=0, select bank0
  1911  0FA1  0840               	movf	?___ftadd,w
  1912  0FA2  00D7               	movwf	log@x
  1913  0FA3  0841               	movf	?___ftadd+1,w
  1914  0FA4  00D8               	movwf	log@x+1
  1915  0FA5  0842               	movf	?___ftadd+2,w
  1916  0FA6  00D9               	movwf	log@x+2
  1917  0FA7  30FF               	movlw	255
  1918  0FA8  07DB               	addwf	log@exponent,f
  1919  0FA9  1803               	skipnc
  1920  0FAA  0ADC               	incf	log@exponent+1,f
  1921  0FAB  30FF               	movlw	255
  1922  0FAC  07DC               	addwf	log@exponent+1,f
  1923  0FAD  0857               	movf	log@x,w
  1924  0FAE  00CD               	movwf	eval_poly@x
  1925  0FAF  0858               	movf	log@x+1,w
  1926  0FB0  00CE               	movwf	eval_poly@x+1
  1927  0FB1  0859               	movf	log@x+2,w
  1928  0FB2  00CF               	movwf	eval_poly@x+2
  1929  0FB3  3029               	movlw	(log@coeff-__stringbase)& (0+255)
  1930  0FB4  00DA               	movwf	??_log
  1931  0FB5  085A               	movf	??_log,w
  1932  0FB6  00D0               	movwf	eval_poly@d
  1933  0FB7  3008               	movlw	8
  1934  0FB8  00D1               	movwf	eval_poly@n
  1935  0FB9  3000               	movlw	0
  1936  0FBA  00D2               	movwf	eval_poly@n+1
  1937  0FBB  120A  158A  238C  120A  158A  	fcall	_eval_poly
  1938  0FC0  1283               	bcf	3,5	;RP0=0, select bank0
  1939  0FC1  1303               	bcf	3,6	;RP1=0, select bank0
  1940  0FC2  084D               	movf	?_eval_poly,w
  1941  0FC3  00D7               	movwf	log@x
  1942  0FC4  084E               	movf	?_eval_poly+1,w
  1943  0FC5  00D8               	movwf	log@x+1
  1944  0FC6  084F               	movf	?_eval_poly+2,w
  1945  0FC7  00D9               	movwf	log@x+2
  1946  0FC8  0857               	movf	log@x,w
  1947  0FC9  00C0               	movwf	___ftadd@f1
  1948  0FCA  0858               	movf	log@x+1,w
  1949  0FCB  00C1               	movwf	___ftadd@f1+1
  1950  0FCC  0859               	movf	log@x+2,w
  1951  0FCD  00C2               	movwf	___ftadd@f1+2
  1952  0FCE  3072               	movlw	114
  1953  0FCF  00B0               	movwf	___ftmul@f1
  1954  0FD0  3031               	movlw	49
  1955  0FD1  00B1               	movwf	___ftmul@f1+1
  1956  0FD2  303F               	movlw	63
  1957  0FD3  00B2               	movwf	___ftmul@f1+2
  1958  0FD4  085C               	movf	log@exponent+1,w
  1959  0FD5  01F9               	clrf	___awtoft@c+1
  1960  0FD6  07F9               	addwf	___awtoft@c+1,f
  1961  0FD7  085B               	movf	log@exponent,w
  1962  0FD8  01F8               	clrf	___awtoft@c
  1963  0FD9  07F8               	addwf	___awtoft@c,f
  1964  0FDA  120A  118A  2004  120A  158A  	fcall	___awtoft
  1965  0FDF  0878               	movf	?___awtoft,w
  1966  0FE0  1283               	bcf	3,5	;RP0=0, select bank0
  1967  0FE1  1303               	bcf	3,6	;RP1=0, select bank0
  1968  0FE2  00B3               	movwf	___ftmul@f2
  1969  0FE3  0879               	movf	?___awtoft+1,w
  1970  0FE4  00B4               	movwf	___ftmul@f2+1
  1971  0FE5  087A               	movf	?___awtoft+2,w
  1972  0FE6  00B5               	movwf	___ftmul@f2+2
  1973  0FE7  120A  118A  2025  120A  158A  	fcall	___ftmul
  1974  0FEC  1283               	bcf	3,5	;RP0=0, select bank0
  1975  0FED  1303               	bcf	3,6	;RP1=0, select bank0
  1976  0FEE  0830               	movf	?___ftmul,w
  1977  0FEF  00C3               	movwf	___ftadd@f2
  1978  0FF0  0831               	movf	?___ftmul+1,w
  1979  0FF1  00C4               	movwf	___ftadd@f2+1
  1980  0FF2  0832               	movf	?___ftmul+2,w
  1981  0FF3  00C5               	movwf	___ftadd@f2+2
  1982  0FF4  120A  118A  21D1   	fcall	___ftadd
  1983  0FF7  1283               	bcf	3,5	;RP0=0, select bank0
  1984  0FF8  1303               	bcf	3,6	;RP1=0, select bank0
  1985  0FF9  0840               	movf	?___ftadd,w
  1986  0FFA  00D7               	movwf	?_log
  1987  0FFB  0841               	movf	?___ftadd+1,w
  1988  0FFC  00D8               	movwf	?_log+1
  1989  0FFD  0842               	movf	?___ftadd+2,w
  1990  0FFE  00D9               	movwf	?_log+2
  1991  0FFF  0008               	return
  1992  1000                     __end_of_log:	
  1993                           
  1994                           	psect	text3
  1995  042E                     __ptext3:	
  1996 ;; *************** function _exp *****************
  1997 ;; Defined at:
  1998 ;;		line 12 in file "C:\Program Files (x86)\Microchip\xc8\v1.33\sources\common\exp.c"
  1999 ;; Parameters:    Size  Location     Type
  2000 ;;  x               3   76[BANK0 ] int 
  2001 ;; Auto vars:     Size  Location     Type
  2002 ;;  exponent        2    6[BANK1 ] int 
  2003 ;;  sign            1    8[BANK1 ] unsigned char 
  2004 ;; Return value:  Size  Location     Type
  2005 ;;                  3   76[BANK0 ] unsigned char 
  2006 ;; Registers used:
  2007 ;;		wreg, fsr0l, fsr0h, status,2, status,0, btemp+1, pclath, cstack
  2008 ;; Tracked objects:
  2009 ;;		On entry : 0/0
  2010 ;;		On exit  : 0/0
  2011 ;;		Unchanged: 0/0
  2012 ;; Data sizes:     COMMON   BANK0   BANK1   BANK3   BANK2
  2013 ;;      Params:         0       3       0       0       0
  2014 ;;      Locals:         0       0       9       0       0
  2015 ;;      Temps:          0       1       0       0       0
  2016 ;;      Totals:         0       4       9       0       0
  2017 ;;Total ram usage:       13 bytes
  2018 ;; Hardware stack levels used:    1
  2019 ;; Hardware stack levels required when called:    3
  2020 ;; This function calls:
  2021 ;;		___awtoft
  2022 ;;		___ftdiv
  2023 ;;		___ftge
  2024 ;;		___ftmul
  2025 ;;		___ftneg
  2026 ;;		___ftsub
  2027 ;;		___fttol
  2028 ;;		_eval_poly
  2029 ;;		_floor
  2030 ;;		_ldexp
  2031 ;; This function is called by:
  2032 ;;		_pow
  2033 ;; This function uses a non-reentrant model
  2034 ;;
  2035                           
  2036                           
  2037                           ;psect for function _exp
  2038  042E                     _exp:	
  2039                           
  2040                           ;incstack = 0
  2041                           ; Regs used in _exp: [wreg-fsr0h+status,2+status,0+btemp+1+pclath+cstack]
  2042  042E  1283               	bcf	3,5	;RP0=0, select bank0
  2043  042F  1303               	bcf	3,6	;RP1=0, select bank0
  2044  0430  086E               	movf	exp@x+2,w
  2045  0431  046D               	iorwf	exp@x+1,w
  2046  0432  046C               	iorwf	exp@x,w
  2047  0433  1D03               	skipz
  2048  0434  2C3C               	goto	l2182
  2049  0435  3000               	movlw	0
  2050  0436  00EC               	movwf	?_exp
  2051  0437  3080               	movlw	128
  2052  0438  00ED               	movwf	?_exp+1
  2053  0439  303F               	movlw	63
  2054  043A  00EE               	movwf	?_exp+2
  2055  043B  0008               	return
  2056  043C                     l2182:	
  2057  043C  3072               	movlw	114
  2058  043D  00F0               	movwf	___ftge@ff1
  2059  043E  3031               	movlw	49
  2060  043F  00F1               	movwf	___ftge@ff1+1
  2061  0440  3044               	movlw	68
  2062  0441  00F2               	movwf	___ftge@ff1+2
  2063  0442  086C               	movf	exp@x,w
  2064  0443  00F3               	movwf	___ftge@ff2
  2065  0444  086D               	movf	exp@x+1,w
  2066  0445  00F4               	movwf	___ftge@ff2+1
  2067  0446  086E               	movf	exp@x+2,w
  2068  0447  00F5               	movwf	___ftge@ff2+2
  2069  0448  120A  158A  2261  120A  118A  	fcall	___ftge
  2070  044D  1803               	btfsc	3,0
  2071  044E  2C5D               	goto	l2192
  2072  044F  3022               	movlw	34
  2073  0450  1683               	bsf	3,5	;RP0=1, select bank1
  2074  0451  1303               	bcf	3,6	;RP1=0, select bank1
  2075  0452  00CC               	movwf	_errno^(0+128)
  2076  0453  3000               	movlw	0
  2077  0454  00CD               	movwf	(_errno^(0+128)+1)
  2078  0455  30FF               	movlw	255
  2079  0456  1283               	bcf	3,5	;RP0=0, select bank0
  2080  0457  00EC               	movwf	?_exp
  2081  0458  307F               	movlw	127
  2082  0459  00ED               	movwf	?_exp+1
  2083  045A  307F               	movlw	127
  2084  045B  00EE               	movwf	?_exp+2
  2085  045C  0008               	return
  2086  045D                     l2192:	
  2087  045D  1283               	bcf	3,5	;RP0=0, select bank0
  2088  045E  1303               	bcf	3,6	;RP1=0, select bank0
  2089  045F  086C               	movf	exp@x,w
  2090  0460  00F0               	movwf	___ftge@ff1
  2091  0461  086D               	movf	exp@x+1,w
  2092  0462  00F1               	movwf	___ftge@ff1+1
  2093  0463  086E               	movf	exp@x+2,w
  2094  0464  00F2               	movwf	___ftge@ff1+2
  2095  0465  3049               	movlw	73
  2096  0466  00F3               	movwf	___ftge@ff2
  2097  0467  303A               	movlw	58
  2098  0468  00F4               	movwf	___ftge@ff2+1
  2099  0469  30C4               	movlw	196
  2100  046A  00F5               	movwf	___ftge@ff2+2
  2101  046B  120A  158A  2261  120A  118A  	fcall	___ftge
  2102  0470  1803               	btfsc	3,0
  2103  0471  2C81               	goto	l2198
  2104  0472  3022               	movlw	34
  2105  0473  1683               	bsf	3,5	;RP0=1, select bank1
  2106  0474  1303               	bcf	3,6	;RP1=0, select bank1
  2107  0475  00CC               	movwf	_errno^(0+128)
  2108  0476  3000               	movlw	0
  2109  0477  00CD               	movwf	(_errno^(0+128)+1)
  2110  0478  3000               	movlw	0
  2111  0479  1283               	bcf	3,5	;RP0=0, select bank0
  2112  047A  1303               	bcf	3,6	;RP1=0, select bank0
  2113  047B  00EC               	movwf	?_exp
  2114  047C  3000               	movlw	0
  2115  047D  00ED               	movwf	?_exp+1
  2116  047E  3000               	movlw	0
  2117  047F  00EE               	movwf	?_exp+2
  2118  0480  0008               	return
  2119  0481                     l2198:	
  2120  0481  1283               	bcf	3,5	;RP0=0, select bank0
  2121  0482  1303               	bcf	3,6	;RP1=0, select bank0
  2122  0483  086C               	movf	exp@x,w
  2123  0484  00F0               	movwf	___ftge@ff1
  2124  0485  086D               	movf	exp@x+1,w
  2125  0486  00F1               	movwf	___ftge@ff1+1
  2126  0487  086E               	movf	exp@x+2,w
  2127  0488  00F2               	movwf	___ftge@ff1+2
  2128  0489  3000               	movlw	0
  2129  048A  00F3               	movwf	___ftge@ff2
  2130  048B  3000               	movlw	0
  2131  048C  00F4               	movwf	___ftge@ff2+1
  2132  048D  3000               	movlw	0
  2133  048E  00F5               	movwf	___ftge@ff2+2
  2134  048F  120A  158A  2261  120A  118A  	fcall	___ftge
  2135  0494  3000               	movlw	0
  2136  0495  1C03               	btfss	3,0
  2137  0496  3001               	movlw	1
  2138  0497  1283               	bcf	3,5	;RP0=0, select bank0
  2139  0498  1303               	bcf	3,6	;RP1=0, select bank0
  2140  0499  00EF               	movwf	??_exp
  2141  049A  086F               	movf	??_exp,w
  2142  049B  1683               	bsf	3,5	;RP0=1, select bank1
  2143  049C  1303               	bcf	3,6	;RP1=0, select bank1
  2144  049D  00A8               	movwf	exp@sign^(0+128)
  2145  049E  0828               	movf	exp@sign^(0+128),w
  2146  049F  1903               	btfsc	3,2
  2147  04A0  2CB8               	goto	l2204
  2148  04A1  1283               	bcf	3,5	;RP0=0, select bank0
  2149  04A2  1303               	bcf	3,6	;RP1=0, select bank0
  2150  04A3  086C               	movf	exp@x,w
  2151  04A4  00F0               	movwf	___ftneg@f1
  2152  04A5  086D               	movf	exp@x+1,w
  2153  04A6  00F1               	movwf	___ftneg@f1+1
  2154  04A7  086E               	movf	exp@x+2,w
  2155  04A8  00F2               	movwf	___ftneg@f1+2
  2156  04A9  160A  118A  27D8  120A  118A  	fcall	___ftneg
  2157  04AE  0870               	movf	?___ftneg,w
  2158  04AF  1283               	bcf	3,5	;RP0=0, select bank0
  2159  04B0  1303               	bcf	3,6	;RP1=0, select bank0
  2160  04B1  00EC               	movwf	exp@x
  2161  04B2  0871               	movf	?___ftneg+1,w
  2162  04B3  00ED               	movwf	exp@x+1
  2163  04B4  0872               	movf	?___ftneg+2,w
  2164  04B5  00EE               	movwf	exp@x+2
  2165  04B6  1683               	bsf	3,5	;RP0=1, select bank1
  2166  04B7  1303               	bcf	3,6	;RP1=0, select bank1
  2167  04B8                     l2204:	
  2168  04B8  30AA               	movlw	170
  2169  04B9  1283               	bcf	3,5	;RP0=0, select bank0
  2170  04BA  00B0               	movwf	___ftmul@f1
  2171  04BB  30B8               	movlw	184
  2172  04BC  00B1               	movwf	___ftmul@f1+1
  2173  04BD  303F               	movlw	63
  2174  04BE  00B2               	movwf	___ftmul@f1+2
  2175  04BF  086C               	movf	exp@x,w
  2176  04C0  00B3               	movwf	___ftmul@f2
  2177  04C1  086D               	movf	exp@x+1,w
  2178  04C2  00B4               	movwf	___ftmul@f2+1
  2179  04C3  086E               	movf	exp@x+2,w
  2180  04C4  00B5               	movwf	___ftmul@f2+2
  2181  04C5  120A  118A  2025  120A  118A  	fcall	___ftmul
  2182  04CA  1283               	bcf	3,5	;RP0=0, select bank0
  2183  04CB  1303               	bcf	3,6	;RP1=0, select bank0
  2184  04CC  0830               	movf	?___ftmul,w
  2185  04CD  00EC               	movwf	exp@x
  2186  04CE  0831               	movf	?___ftmul+1,w
  2187  04CF  00ED               	movwf	exp@x+1
  2188  04D0  0832               	movf	?___ftmul+2,w
  2189  04D1  00EE               	movwf	exp@x+2
  2190  04D2  086C               	movf	exp@x,w
  2191  04D3  00E3               	movwf	floor@x
  2192  04D4  086D               	movf	exp@x+1,w
  2193  04D5  00E4               	movwf	floor@x+1
  2194  04D6  086E               	movf	exp@x+2,w
  2195  04D7  00E5               	movwf	floor@x+2
  2196  04D8  120A  158A  2493  120A  118A  	fcall	_floor
  2197  04DD  1283               	bcf	3,5	;RP0=0, select bank0
  2198  04DE  1303               	bcf	3,6	;RP1=0, select bank0
  2199  04DF  0863               	movf	?_floor,w
  2200  04E0  1683               	bsf	3,5	;RP0=1, select bank1
  2201  04E1  1303               	bcf	3,6	;RP1=0, select bank1
  2202  04E2  00A0               	movwf	_exp$649^(0+128)
  2203  04E3  1283               	bcf	3,5	;RP0=0, select bank0
  2204  04E4  1303               	bcf	3,6	;RP1=0, select bank0
  2205  04E5  0864               	movf	?_floor+1,w
  2206  04E6  1683               	bsf	3,5	;RP0=1, select bank1
  2207  04E7  1303               	bcf	3,6	;RP1=0, select bank1
  2208  04E8  00A1               	movwf	(_exp$649+1)^(0+128)
  2209  04E9  1283               	bcf	3,5	;RP0=0, select bank0
  2210  04EA  1303               	bcf	3,6	;RP1=0, select bank0
  2211  04EB  0865               	movf	?_floor+2,w
  2212  04EC  1683               	bsf	3,5	;RP0=1, select bank1
  2213  04ED  1303               	bcf	3,6	;RP1=0, select bank1
  2214  04EE  00A2               	movwf	(_exp$649+2)^(0+128)
  2215  04EF  0820               	movf	_exp$649^(0+128),w
  2216  04F0  1283               	bcf	3,5	;RP0=0, select bank0
  2217  04F1  1303               	bcf	3,6	;RP1=0, select bank0
  2218  04F2  00CD               	movwf	___fttol@f1
  2219  04F3  1683               	bsf	3,5	;RP0=1, select bank1
  2220  04F4  1303               	bcf	3,6	;RP1=0, select bank1
  2221  04F5  0821               	movf	(_exp$649+1)^(0+128),w
  2222  04F6  1283               	bcf	3,5	;RP0=0, select bank0
  2223  04F7  1303               	bcf	3,6	;RP1=0, select bank0
  2224  04F8  00CE               	movwf	___fttol@f1+1
  2225  04F9  1683               	bsf	3,5	;RP0=1, select bank1
  2226  04FA  1303               	bcf	3,6	;RP1=0, select bank1
  2227  04FB  0822               	movf	(_exp$649+2)^(0+128),w
  2228  04FC  1283               	bcf	3,5	;RP0=0, select bank0
  2229  04FD  1303               	bcf	3,6	;RP1=0, select bank0
  2230  04FE  00CF               	movwf	___fttol@f1+2
  2231  04FF  120A  158A  2405  120A  118A  	fcall	___fttol
  2232  0504  1283               	bcf	3,5	;RP0=0, select bank0
  2233  0505  1303               	bcf	3,6	;RP1=0, select bank0
  2234  0506  084E               	movf	?___fttol+1,w
  2235  0507  1683               	bsf	3,5	;RP0=1, select bank1
  2236  0508  1303               	bcf	3,6	;RP1=0, select bank1
  2237  0509  01A7               	clrf	(exp@exponent+1)^(0+128)
  2238  050A  07A7               	addwf	(exp@exponent+1)^(0+128),f
  2239  050B  1283               	bcf	3,5	;RP0=0, select bank0
  2240  050C  1303               	bcf	3,6	;RP1=0, select bank0
  2241  050D  084D               	movf	?___fttol,w
  2242  050E  1683               	bsf	3,5	;RP0=1, select bank1
  2243  050F  1303               	bcf	3,6	;RP1=0, select bank1
  2244  0510  01A6               	clrf	exp@exponent^(0+128)
  2245  0511  07A6               	addwf	exp@exponent^(0+128),f
  2246  0512  0827               	movf	(exp@exponent+1)^(0+128),w
  2247  0513  01F9               	clrf	___awtoft@c+1
  2248  0514  07F9               	addwf	___awtoft@c+1,f
  2249  0515  0826               	movf	exp@exponent^(0+128),w
  2250  0516  01F8               	clrf	___awtoft@c
  2251  0517  07F8               	addwf	___awtoft@c,f
  2252  0518  120A  118A  2004  120A  118A  	fcall	___awtoft
  2253  051D  0878               	movf	?___awtoft,w
  2254  051E  1283               	bcf	3,5	;RP0=0, select bank0
  2255  051F  1303               	bcf	3,6	;RP1=0, select bank0
  2256  0520  00CD               	movwf	___ftsub@f2
  2257  0521  0879               	movf	?___awtoft+1,w
  2258  0522  00CE               	movwf	___ftsub@f2+1
  2259  0523  087A               	movf	?___awtoft+2,w
  2260  0524  00CF               	movwf	___ftsub@f2+2
  2261  0525  086C               	movf	exp@x,w
  2262  0526  00D0               	movwf	___ftsub@f1
  2263  0527  086D               	movf	exp@x+1,w
  2264  0528  00D1               	movwf	___ftsub@f1+1
  2265  0529  086E               	movf	exp@x+2,w
  2266  052A  00D2               	movwf	___ftsub@f1+2
  2267  052B  120A  158A  20B1  120A  118A  	fcall	___ftsub
  2268  0530  1283               	bcf	3,5	;RP0=0, select bank0
  2269  0531  1303               	bcf	3,6	;RP1=0, select bank0
  2270  0532  084D               	movf	?___ftsub,w
  2271  0533  00EC               	movwf	exp@x
  2272  0534  084E               	movf	?___ftsub+1,w
  2273  0535  00ED               	movwf	exp@x+1
  2274  0536  084F               	movf	?___ftsub+2,w
  2275  0537  00EE               	movwf	exp@x+2
  2276  0538  086C               	movf	exp@x,w
  2277  0539  00CD               	movwf	eval_poly@x
  2278  053A  086D               	movf	exp@x+1,w
  2279  053B  00CE               	movwf	eval_poly@x+1
  2280  053C  086E               	movf	exp@x+2,w
  2281  053D  00CF               	movwf	eval_poly@x+2
  2282  053E  300B               	movlw	(exp@coeff-__stringbase)& (0+255)
  2283  053F  00EF               	movwf	??_exp
  2284  0540  086F               	movf	??_exp,w
  2285  0541  00D0               	movwf	eval_poly@d
  2286  0542  3009               	movlw	9
  2287  0543  00D1               	movwf	eval_poly@n
  2288  0544  3000               	movlw	0
  2289  0545  00D2               	movwf	eval_poly@n+1
  2290  0546  120A  158A  238C  120A  118A  	fcall	_eval_poly
  2291  054B  1283               	bcf	3,5	;RP0=0, select bank0
  2292  054C  1303               	bcf	3,6	;RP1=0, select bank0
  2293  054D  084D               	movf	?_eval_poly,w
  2294  054E  00D7               	movwf	ldexp@value
  2295  054F  084E               	movf	?_eval_poly+1,w
  2296  0550  00D8               	movwf	ldexp@value+1
  2297  0551  084F               	movf	?_eval_poly+2,w
  2298  0552  00D9               	movwf	ldexp@value+2
  2299  0553  1683               	bsf	3,5	;RP0=1, select bank1
  2300  0554  1303               	bcf	3,6	;RP1=0, select bank1
  2301  0555  0827               	movf	(exp@exponent+1)^(0+128),w
  2302  0556  1283               	bcf	3,5	;RP0=0, select bank0
  2303  0557  1303               	bcf	3,6	;RP1=0, select bank0
  2304  0558  01DB               	clrf	ldexp@newexp+1
  2305  0559  07DB               	addwf	ldexp@newexp+1,f
  2306  055A  1683               	bsf	3,5	;RP0=1, select bank1
  2307  055B  1303               	bcf	3,6	;RP1=0, select bank1
  2308  055C  0826               	movf	exp@exponent^(0+128),w
  2309  055D  1283               	bcf	3,5	;RP0=0, select bank0
  2310  055E  1303               	bcf	3,6	;RP1=0, select bank0
  2311  055F  01DA               	clrf	ldexp@newexp
  2312  0560  07DA               	addwf	ldexp@newexp,f
  2313  0561  120A  158A  252C  120A  118A  	fcall	_ldexp
  2314  0566  1283               	bcf	3,5	;RP0=0, select bank0
  2315  0567  1303               	bcf	3,6	;RP1=0, select bank0
  2316  0568  0857               	movf	?_ldexp,w
  2317  0569  00EC               	movwf	exp@x
  2318  056A  0858               	movf	?_ldexp+1,w
  2319  056B  00ED               	movwf	exp@x+1
  2320  056C  0859               	movf	?_ldexp+2,w
  2321  056D  00EE               	movwf	exp@x+2
  2322  056E  1683               	bsf	3,5	;RP0=1, select bank1
  2323  056F  1303               	bcf	3,6	;RP1=0, select bank1
  2324  0570  0828               	movf	exp@sign^(0+128),w
  2325  0571  1903               	btfsc	3,2
  2326  0572  0008               	return
  2327  0573  30FF               	movlw	255
  2328  0574  00A3               	movwf	_exp$440^(0+128)
  2329  0575  307F               	movlw	127
  2330  0576  00A4               	movwf	(_exp$440+1)^(0+128)
  2331  0577  307F               	movlw	127
  2332  0578  00A5               	movwf	(_exp$440+2)^(0+128)
  2333  0579  1283               	bcf	3,5	;RP0=0, select bank0
  2334  057A  1303               	bcf	3,6	;RP1=0, select bank0
  2335  057B  086E               	movf	exp@x+2,w
  2336  057C  1683               	bsf	3,5	;RP0=1, select bank1
  2337  057D  1303               	bcf	3,6	;RP1=0, select bank1
  2338  057E  0625               	xorwf	(_exp$440+2)^(0+128),w
  2339  057F  1D03               	skipz
  2340  0580  2D8F               	goto	u2605
  2341  0581  1283               	bcf	3,5	;RP0=0, select bank0
  2342  0582  1303               	bcf	3,6	;RP1=0, select bank0
  2343  0583  086D               	movf	exp@x+1,w
  2344  0584  1683               	bsf	3,5	;RP0=1, select bank1
  2345  0585  1303               	bcf	3,6	;RP1=0, select bank1
  2346  0586  0624               	xorwf	(_exp$440+1)^(0+128),w
  2347  0587  1D03               	skipz
  2348  0588  2D8F               	goto	u2605
  2349  0589  1283               	bcf	3,5	;RP0=0, select bank0
  2350  058A  1303               	bcf	3,6	;RP1=0, select bank0
  2351  058B  086C               	movf	exp@x,w
  2352  058C  1683               	bsf	3,5	;RP0=1, select bank1
  2353  058D  1303               	bcf	3,6	;RP1=0, select bank1
  2354  058E  0623               	xorwf	_exp$440^(0+128),w
  2355  058F                     u2605:	
  2356  058F  1D03               	skipz
  2357  0590  2D9A               	goto	l2226
  2358  0591  3000               	movlw	0
  2359  0592  1283               	bcf	3,5	;RP0=0, select bank0
  2360  0593  1303               	bcf	3,6	;RP1=0, select bank0
  2361  0594  00EC               	movwf	?_exp
  2362  0595  3000               	movlw	0
  2363  0596  00ED               	movwf	?_exp+1
  2364  0597  3000               	movlw	0
  2365  0598  00EE               	movwf	?_exp+2
  2366  0599  0008               	return
  2367  059A                     l2226:	
  2368  059A  1283               	bcf	3,5	;RP0=0, select bank0
  2369  059B  086C               	movf	exp@x,w
  2370  059C  00A0               	movwf	___ftdiv@f2
  2371  059D  086D               	movf	exp@x+1,w
  2372  059E  00A1               	movwf	___ftdiv@f2+1
  2373  059F  086E               	movf	exp@x+2,w
  2374  05A0  00A2               	movwf	___ftdiv@f2+2
  2375  05A1  3000               	movlw	0
  2376  05A2  00A3               	movwf	___ftdiv@f1
  2377  05A3  3080               	movlw	128
  2378  05A4  00A4               	movwf	___ftdiv@f1+1
  2379  05A5  303F               	movlw	63
  2380  05A6  00A5               	movwf	___ftdiv@f1+2
  2381  05A7  120A  158A  2678   	fcall	___ftdiv
  2382  05AA  1283               	bcf	3,5	;RP0=0, select bank0
  2383  05AB  1303               	bcf	3,6	;RP1=0, select bank0
  2384  05AC  0820               	movf	?___ftdiv,w
  2385  05AD  00EC               	movwf	?_exp
  2386  05AE  0821               	movf	?___ftdiv+1,w
  2387  05AF  00ED               	movwf	?_exp+1
  2388  05B0  0822               	movf	?___ftdiv+2,w
  2389  05B1  00EE               	movwf	?_exp+2
  2390  05B2  0008               	return
  2391  05B3                     __end_of_exp:	
  2392                           
  2393                           	psect	text4
  2394  0D2C                     __ptext4:	
  2395 ;; *************** function _ldexp *****************
  2396 ;; Defined at:
  2397 ;;		line 277 in file "C:\Program Files (x86)\Microchip\xc8\v1.33\sources\common\frexp.c"
  2398 ;; Parameters:    Size  Location     Type
  2399 ;;  value           3   55[BANK0 ] unsigned char 
  2400 ;;  newexp          2   58[BANK0 ] int 
  2401 ;; Auto vars:     Size  Location     Type
  2402 ;;		None
  2403 ;; Return value:  Size  Location     Type
  2404 ;;                  3   55[BANK0 ] int 
  2405 ;; Registers used:
  2406 ;;		wreg, status,2, status,0, btemp+1, pclath, cstack
  2407 ;; Tracked objects:
  2408 ;;		On entry : 0/0
  2409 ;;		On exit  : 0/0
  2410 ;;		Unchanged: 0/0
  2411 ;; Data sizes:     COMMON   BANK0   BANK1   BANK3   BANK2
  2412 ;;      Params:         0       5       0       0       0
  2413 ;;      Locals:         0       3       0       0       0
  2414 ;;      Temps:          0       2       0       0       0
  2415 ;;      Totals:         0      10       0       0       0
  2416 ;;Total ram usage:       10 bytes
  2417 ;; Hardware stack levels used:    1
  2418 ;; Hardware stack levels required when called:    1
  2419 ;; This function calls:
  2420 ;;		___ftge
  2421 ;;		___ftneg
  2422 ;; This function is called by:
  2423 ;;		_exp
  2424 ;; This function uses a non-reentrant model
  2425 ;;
  2426                           
  2427                           
  2428                           ;psect for function _ldexp
  2429  0D2C                     _ldexp:	
  2430                           
  2431                           ;incstack = 0
  2432                           ; Regs used in _ldexp: [wreg+status,2+status,0+btemp+1+pclath+cstack]
  2433  0D2C  1283               	bcf	3,5	;RP0=0, select bank0
  2434  0D2D  1303               	bcf	3,6	;RP1=0, select bank0
  2435  0D2E  0859               	movf	ldexp@value+2,w
  2436  0D2F  0458               	iorwf	ldexp@value+1,w
  2437  0D30  0457               	iorwf	ldexp@value,w
  2438  0D31  1D03               	skipz
  2439  0D32  2D3A               	goto	l2018
  2440  0D33  3000               	movlw	0
  2441  0D34  00D7               	movwf	?_ldexp
  2442  0D35  3000               	movlw	0
  2443  0D36  00D8               	movwf	?_ldexp+1
  2444  0D37  3000               	movlw	0
  2445  0D38  00D9               	movwf	?_ldexp+2
  2446  0D39  0008               	return
  2447  0D3A                     l2018:	
  2448  0D3A  0859               	movf	ldexp@value+2,w
  2449  0D3B  397F               	andlw	127
  2450  0D3C  00DC               	movwf	??_ldexp
  2451  0D3D  01DD               	clrf	??_ldexp+1
  2452  0D3E  1003               	clrc
  2453  0D3F  0DDC               	rlf	??_ldexp,f
  2454  0D40  0DDD               	rlf	??_ldexp+1,f
  2455  0D41  085C               	movf	??_ldexp,w
  2456  0D42  07DA               	addwf	ldexp@newexp,f
  2457  0D43  1803               	skipnc
  2458  0D44  0ADB               	incf	ldexp@newexp+1,f
  2459  0D45  085D               	movf	??_ldexp+1,w
  2460  0D46  07DB               	addwf	ldexp@newexp+1,f
  2461  0D47  0D58               	rlf	ldexp@value+1,w
  2462  0D48  0D58               	rlf	ldexp@value+1,w
  2463  0D49  3901               	andlw	1
  2464  0D4A  00DC               	movwf	??_ldexp
  2465  0D4B  01DD               	clrf	??_ldexp+1
  2466  0D4C  085C               	movf	??_ldexp,w
  2467  0D4D  07DA               	addwf	ldexp@newexp,f
  2468  0D4E  1803               	skipnc
  2469  0D4F  0ADB               	incf	ldexp@newexp+1,f
  2470  0D50  085D               	movf	??_ldexp+1,w
  2471  0D51  07DB               	addwf	ldexp@newexp+1,f
  2472  0D52  1FDB               	btfss	ldexp@newexp+1,7
  2473  0D53  2D63               	goto	l2028
  2474  0D54  3022               	movlw	34
  2475  0D55  1683               	bsf	3,5	;RP0=1, select bank1
  2476  0D56  1303               	bcf	3,6	;RP1=0, select bank1
  2477  0D57  00CC               	movwf	_errno^(0+128)
  2478  0D58  3000               	movlw	0
  2479  0D59  00CD               	movwf	(_errno^(0+128)+1)
  2480  0D5A  3000               	movlw	0
  2481  0D5B  1283               	bcf	3,5	;RP0=0, select bank0
  2482  0D5C  1303               	bcf	3,6	;RP1=0, select bank0
  2483  0D5D  00D7               	movwf	?_ldexp
  2484  0D5E  3000               	movlw	0
  2485  0D5F  00D8               	movwf	?_ldexp+1
  2486  0D60  3000               	movlw	0
  2487  0D61  00D9               	movwf	?_ldexp+2
  2488  0D62  0008               	return
  2489  0D63                     l2028:	
  2490  0D63  085B               	movf	ldexp@newexp+1,w
  2491  0D64  3A80               	xorlw	128
  2492  0D65  00FF               	movwf	127
  2493  0D66  3081               	movlw	129
  2494  0D67  027F               	subwf	127,w
  2495  0D68  1D03               	skipz
  2496  0D69  2D6C               	goto	u2395
  2497  0D6A  3000               	movlw	0
  2498  0D6B  025A               	subwf	ldexp@newexp,w
  2499  0D6C                     u2395:	
  2500  0D6C  1C03               	skipc
  2501  0D6D  2DAC               	goto	l2052
  2502  0D6E  3022               	movlw	34
  2503  0D6F  1683               	bsf	3,5	;RP0=1, select bank1
  2504  0D70  1303               	bcf	3,6	;RP1=0, select bank1
  2505  0D71  00CC               	movwf	_errno^(0+128)
  2506  0D72  3000               	movlw	0
  2507  0D73  00CD               	movwf	(_errno^(0+128)+1)
  2508  0D74  1283               	bcf	3,5	;RP0=0, select bank0
  2509  0D75  1303               	bcf	3,6	;RP1=0, select bank0
  2510  0D76  0857               	movf	ldexp@value,w
  2511  0D77  00F0               	movwf	___ftge@ff1
  2512  0D78  0858               	movf	ldexp@value+1,w
  2513  0D79  00F1               	movwf	___ftge@ff1+1
  2514  0D7A  0859               	movf	ldexp@value+2,w
  2515  0D7B  00F2               	movwf	___ftge@ff1+2
  2516  0D7C  3000               	movlw	0
  2517  0D7D  00F3               	movwf	___ftge@ff2
  2518  0D7E  3000               	movlw	0
  2519  0D7F  00F4               	movwf	___ftge@ff2+1
  2520  0D80  3000               	movlw	0
  2521  0D81  00F5               	movwf	___ftge@ff2+2
  2522  0D82  120A  158A  2261  120A  158A  	fcall	___ftge
  2523  0D87  1803               	btfsc	3,0
  2524  0D88  2DA3               	goto	l2048
  2525  0D89  30FF               	movlw	255
  2526  0D8A  1283               	bcf	3,5	;RP0=0, select bank0
  2527  0D8B  1303               	bcf	3,6	;RP1=0, select bank0
  2528  0D8C  00DE               	movwf	_ldexp$477
  2529  0D8D  307F               	movlw	127
  2530  0D8E  00DF               	movwf	_ldexp$477+1
  2531  0D8F  307F               	movlw	127
  2532  0D90  00E0               	movwf	_ldexp$477+2
  2533  0D91  085E               	movf	_ldexp$477,w
  2534  0D92  00F0               	movwf	___ftneg@f1
  2535  0D93  085F               	movf	_ldexp$477+1,w
  2536  0D94  00F1               	movwf	___ftneg@f1+1
  2537  0D95  0860               	movf	_ldexp$477+2,w
  2538  0D96  00F2               	movwf	___ftneg@f1+2
  2539  0D97  160A  118A  27D8   	fcall	___ftneg
  2540  0D9A  0870               	movf	?___ftneg,w
  2541  0D9B  1283               	bcf	3,5	;RP0=0, select bank0
  2542  0D9C  1303               	bcf	3,6	;RP1=0, select bank0
  2543  0D9D  00D7               	movwf	?_ldexp
  2544  0D9E  0871               	movf	?___ftneg+1,w
  2545  0D9F  00D8               	movwf	?_ldexp+1
  2546  0DA0  0872               	movf	?___ftneg+2,w
  2547  0DA1  00D9               	movwf	?_ldexp+2
  2548  0DA2  0008               	return
  2549  0DA3                     l2048:	
  2550  0DA3  30FF               	movlw	255
  2551  0DA4  1283               	bcf	3,5	;RP0=0, select bank0
  2552  0DA5  1303               	bcf	3,6	;RP1=0, select bank0
  2553  0DA6  00D7               	movwf	?_ldexp
  2554  0DA7  307F               	movlw	127
  2555  0DA8  00D8               	movwf	?_ldexp+1
  2556  0DA9  307F               	movlw	127
  2557  0DAA  00D9               	movwf	?_ldexp+2
  2558  0DAB  0008               	return
  2559  0DAC                     l2052:	
  2560  0DAC  1283               	bcf	3,5	;RP0=0, select bank0
  2561  0DAD  1303               	bcf	3,6	;RP1=0, select bank0
  2562  0DAE  085B               	movf	ldexp@newexp+1,w
  2563  0DAF  00DD               	movwf	??_ldexp+1
  2564  0DB0  085A               	movf	ldexp@newexp,w
  2565  0DB1  00DC               	movwf	??_ldexp
  2566  0DB2  0D5D               	rlf	??_ldexp+1,w
  2567  0DB3  0CDD               	rrf	??_ldexp+1,f
  2568  0DB4  0CDC               	rrf	??_ldexp,f
  2569  0DB5  0859               	movf	ldexp@value+2,w
  2570  0DB6  065C               	xorwf	??_ldexp,w
  2571  0DB7  3980               	andlw	-128
  2572  0DB8  065C               	xorwf	??_ldexp,w
  2573  0DB9  00D9               	movwf	ldexp@value+2
  2574  0DBA  085A               	movf	ldexp@newexp,w
  2575  0DBB  3901               	andlw	1
  2576  0DBC  00DC               	movwf	??_ldexp
  2577  0DBD  0CDC               	rrf	??_ldexp,f
  2578  0DBE  0CDC               	rrf	??_ldexp,f
  2579  0DBF  0858               	movf	ldexp@value+1,w
  2580  0DC0  065C               	xorwf	??_ldexp,w
  2581  0DC1  397F               	andlw	-129
  2582  0DC2  065C               	xorwf	??_ldexp,w
  2583  0DC3  00D8               	movwf	ldexp@value+1
  2584  0DC4  0008               	return
  2585  0DC5                     __end_of_ldexp:	
  2586                           
  2587                           	psect	text5
  2588  17D8                     __ptext5:	
  2589 ;; *************** function ___ftneg *****************
  2590 ;; Defined at:
  2591 ;;		line 15 in file "C:\Program Files (x86)\Microchip\xc8\v1.33\sources\common\ftneg.c"
  2592 ;; Parameters:    Size  Location     Type
  2593 ;;  f1              3    0[COMMON] float 
  2594 ;; Auto vars:     Size  Location     Type
  2595 ;;		None
  2596 ;; Return value:  Size  Location     Type
  2597 ;;                  3    0[COMMON] float 
  2598 ;; Registers used:
  2599 ;;		wreg
  2600 ;; Tracked objects:
  2601 ;;		On entry : 0/0
  2602 ;;		On exit  : 0/0
  2603 ;;		Unchanged: 0/0
  2604 ;; Data sizes:     COMMON   BANK0   BANK1   BANK3   BANK2
  2605 ;;      Params:         3       0       0       0       0
  2606 ;;      Locals:         0       0       0       0       0
  2607 ;;      Temps:          0       0       0       0       0
  2608 ;;      Totals:         3       0       0       0       0
  2609 ;;Total ram usage:        3 bytes
  2610 ;; Hardware stack levels used:    1
  2611 ;; This function calls:
  2612 ;;		Nothing
  2613 ;; This function is called by:
  2614 ;;		_pow
  2615 ;;		_exp
  2616 ;;		_ldexp
  2617 ;; This function uses a non-reentrant model
  2618 ;;
  2619                           
  2620                           
  2621                           ;psect for function ___ftneg
  2622  17D8                     ___ftneg:	
  2623                           
  2624                           ;incstack = 0
  2625                           ; Regs used in ___ftneg: [wreg]
  2626  17D8  0872               	movf	___ftneg@f1+2,w
  2627  17D9  0471               	iorwf	___ftneg@f1+1,w
  2628  17DA  0470               	iorwf	___ftneg@f1,w
  2629  17DB  1903               	skipnz
  2630  17DC  0008               	return
  2631  17DD  3080               	movlw	128
  2632  17DE  06F2               	xorwf	___ftneg@f1+2,f
  2633  17DF  0008               	return
  2634  17E0                     __end_of___ftneg:	
  2635                           
  2636                           	psect	text6
  2637  0C93                     __ptext6:	
  2638 ;; *************** function _floor *****************
  2639 ;; Defined at:
  2640 ;;		line 13 in file "C:\Program Files (x86)\Microchip\xc8\v1.33\sources\common\floor.c"
  2641 ;; Parameters:    Size  Location     Type
  2642 ;;  x               3   67[BANK0 ] float 
  2643 ;; Auto vars:     Size  Location     Type
  2644 ;;  i               3   71[BANK0 ] float 
  2645 ;;  expon           2   74[BANK0 ] int 
  2646 ;; Return value:  Size  Location     Type
  2647 ;;                  3   67[BANK0 ] int 
  2648 ;; Registers used:
  2649 ;;		wreg, fsr0l, fsr0h, status,2, status,0, btemp+1, pclath, cstack
  2650 ;; Tracked objects:
  2651 ;;		On entry : 0/0
  2652 ;;		On exit  : 0/0
  2653 ;;		Unchanged: 0/0
  2654 ;; Data sizes:     COMMON   BANK0   BANK1   BANK3   BANK2
  2655 ;;      Params:         0       3       0       0       0
  2656 ;;      Locals:         0       5       0       0       0
  2657 ;;      Temps:          0       1       0       0       0
  2658 ;;      Totals:         0       9       0       0       0
  2659 ;;Total ram usage:        9 bytes
  2660 ;; Hardware stack levels used:    1
  2661 ;; Hardware stack levels required when called:    2
  2662 ;; This function calls:
  2663 ;;		___altoft
  2664 ;;		___ftadd
  2665 ;;		___ftge
  2666 ;;		___fttol
  2667 ;;		_frexp
  2668 ;; This function is called by:
  2669 ;;		_exp
  2670 ;; This function uses a non-reentrant model
  2671 ;;
  2672                           
  2673                           
  2674                           ;psect for function _floor
  2675  0C93                     _floor:	
  2676                           
  2677                           ;incstack = 0
  2678                           ; Regs used in _floor: [wreg-fsr0h+status,2+status,0+btemp+1+pclath+cstack]
  2679  0C93  1283               	bcf	3,5	;RP0=0, select bank0
  2680  0C94  1303               	bcf	3,6	;RP1=0, select bank0
  2681  0C95  0863               	movf	floor@x,w
  2682  0C96  00F0               	movwf	frexp@value
  2683  0C97  0864               	movf	floor@x+1,w
  2684  0C98  00F1               	movwf	frexp@value+1
  2685  0C99  0865               	movf	floor@x+2,w
  2686  0C9A  00F2               	movwf	frexp@value+2
  2687  0C9B  306A               	movlw	floor@expon& (0+255)
  2688  0C9C  00E6               	movwf	??_floor
  2689  0C9D  0866               	movf	??_floor,w
  2690  0C9E  00F3               	movwf	frexp@eptr
  2691  0C9F  120A  158A  2190  120A  158A  	fcall	_frexp
  2692  0CA4  1283               	bcf	3,5	;RP0=0, select bank0
  2693  0CA5  1303               	bcf	3,6	;RP1=0, select bank0
  2694  0CA6  1FEB               	btfss	floor@expon+1,7
  2695  0CA7  2CCD               	goto	l1988
  2696  0CA8  0863               	movf	floor@x,w
  2697  0CA9  00F0               	movwf	___ftge@ff1
  2698  0CAA  0864               	movf	floor@x+1,w
  2699  0CAB  00F1               	movwf	___ftge@ff1+1
  2700  0CAC  0865               	movf	floor@x+2,w
  2701  0CAD  00F2               	movwf	___ftge@ff1+2
  2702  0CAE  3000               	movlw	0
  2703  0CAF  00F3               	movwf	___ftge@ff2
  2704  0CB0  3000               	movlw	0
  2705  0CB1  00F4               	movwf	___ftge@ff2+1
  2706  0CB2  3000               	movlw	0
  2707  0CB3  00F5               	movwf	___ftge@ff2+2
  2708  0CB4  120A  158A  2261  120A  158A  	fcall	___ftge
  2709  0CB9  1803               	btfsc	3,0
  2710  0CBA  2CC4               	goto	l1984
  2711  0CBB  3000               	movlw	0
  2712  0CBC  1283               	bcf	3,5	;RP0=0, select bank0
  2713  0CBD  1303               	bcf	3,6	;RP1=0, select bank0
  2714  0CBE  00E3               	movwf	?_floor
  2715  0CBF  3080               	movlw	128
  2716  0CC0  00E4               	movwf	?_floor+1
  2717  0CC1  30BF               	movlw	191
  2718  0CC2  00E5               	movwf	?_floor+2
  2719  0CC3  0008               	return
  2720  0CC4                     l1984:	
  2721  0CC4  3000               	movlw	0
  2722  0CC5  1283               	bcf	3,5	;RP0=0, select bank0
  2723  0CC6  1303               	bcf	3,6	;RP1=0, select bank0
  2724  0CC7  00E3               	movwf	?_floor
  2725  0CC8  3000               	movlw	0
  2726  0CC9  00E4               	movwf	?_floor+1
  2727  0CCA  3000               	movlw	0
  2728  0CCB  00E5               	movwf	?_floor+2
  2729  0CCC  0008               	return
  2730  0CCD                     l1988:	
  2731  0CCD  3000               	movlw	0
  2732  0CCE  026B               	subwf	floor@expon+1,w
  2733  0CCF  3015               	movlw	21
  2734  0CD0  1903               	skipnz
  2735  0CD1  026A               	subwf	floor@expon,w
  2736  0CD2  1803               	btfsc	3,0
  2737  0CD3  0008               	return
  2738  0CD4  0863               	movf	floor@x,w
  2739  0CD5  00CD               	movwf	___fttol@f1
  2740  0CD6  0864               	movf	floor@x+1,w
  2741  0CD7  00CE               	movwf	___fttol@f1+1
  2742  0CD8  0865               	movf	floor@x+2,w
  2743  0CD9  00CF               	movwf	___fttol@f1+2
  2744  0CDA  120A  158A  2405  120A  158A  	fcall	___fttol
  2745  0CDF  1283               	bcf	3,5	;RP0=0, select bank0
  2746  0CE0  1303               	bcf	3,6	;RP1=0, select bank0
  2747  0CE1  0850               	movf	?___fttol+3,w
  2748  0CE2  00DE               	movwf	___altoft@c+3
  2749  0CE3  084F               	movf	?___fttol+2,w
  2750  0CE4  00DD               	movwf	___altoft@c+2
  2751  0CE5  084E               	movf	?___fttol+1,w
  2752  0CE6  00DC               	movwf	___altoft@c+1
  2753  0CE7  084D               	movf	?___fttol,w
  2754  0CE8  00DB               	movwf	___altoft@c
  2755  0CE9  120A  158A  21D0  120A  158A  	fcall	___altoft
  2756  0CEE  1283               	bcf	3,5	;RP0=0, select bank0
  2757  0CEF  1303               	bcf	3,6	;RP1=0, select bank0
  2758  0CF0  085B               	movf	?___altoft,w
  2759  0CF1  00E7               	movwf	floor@i
  2760  0CF2  085C               	movf	?___altoft+1,w
  2761  0CF3  00E8               	movwf	floor@i+1
  2762  0CF4  085D               	movf	?___altoft+2,w
  2763  0CF5  00E9               	movwf	floor@i+2
  2764  0CF6  0863               	movf	floor@x,w
  2765  0CF7  00F0               	movwf	___ftge@ff1
  2766  0CF8  0864               	movf	floor@x+1,w
  2767  0CF9  00F1               	movwf	___ftge@ff1+1
  2768  0CFA  0865               	movf	floor@x+2,w
  2769  0CFB  00F2               	movwf	___ftge@ff1+2
  2770  0CFC  0867               	movf	floor@i,w
  2771  0CFD  00F3               	movwf	___ftge@ff2
  2772  0CFE  0868               	movf	floor@i+1,w
  2773  0CFF  00F4               	movwf	___ftge@ff2+1
  2774  0D00  0869               	movf	floor@i+2,w
  2775  0D01  00F5               	movwf	___ftge@ff2+2
  2776  0D02  120A  158A  2261  120A  158A  	fcall	___ftge
  2777  0D07  1803               	btfsc	3,0
  2778  0D08  2D23               	goto	l1998
  2779  0D09  3000               	movlw	0
  2780  0D0A  1283               	bcf	3,5	;RP0=0, select bank0
  2781  0D0B  1303               	bcf	3,6	;RP1=0, select bank0
  2782  0D0C  00C0               	movwf	___ftadd@f1
  2783  0D0D  3080               	movlw	128
  2784  0D0E  00C1               	movwf	___ftadd@f1+1
  2785  0D0F  30BF               	movlw	191
  2786  0D10  00C2               	movwf	___ftadd@f1+2
  2787  0D11  0867               	movf	floor@i,w
  2788  0D12  00C3               	movwf	___ftadd@f2
  2789  0D13  0868               	movf	floor@i+1,w
  2790  0D14  00C4               	movwf	___ftadd@f2+1
  2791  0D15  0869               	movf	floor@i+2,w
  2792  0D16  00C5               	movwf	___ftadd@f2+2
  2793  0D17  120A  118A  21D1   	fcall	___ftadd
  2794  0D1A  1283               	bcf	3,5	;RP0=0, select bank0
  2795  0D1B  1303               	bcf	3,6	;RP1=0, select bank0
  2796  0D1C  0840               	movf	?___ftadd,w
  2797  0D1D  00E3               	movwf	?_floor
  2798  0D1E  0841               	movf	?___ftadd+1,w
  2799  0D1F  00E4               	movwf	?_floor+1
  2800  0D20  0842               	movf	?___ftadd+2,w
  2801  0D21  00E5               	movwf	?_floor+2
  2802  0D22  0008               	return
  2803  0D23                     l1998:	
  2804  0D23  1283               	bcf	3,5	;RP0=0, select bank0
  2805  0D24  1303               	bcf	3,6	;RP1=0, select bank0
  2806  0D25  0867               	movf	floor@i,w
  2807  0D26  00E3               	movwf	?_floor
  2808  0D27  0868               	movf	floor@i+1,w
  2809  0D28  00E4               	movwf	?_floor+1
  2810  0D29  0869               	movf	floor@i+2,w
  2811  0D2A  00E5               	movwf	?_floor+2
  2812  0D2B  0008               	return
  2813  0D2C                     __end_of_floor:	
  2814                           
  2815                           	psect	text7
  2816  0990                     __ptext7:	
  2817 ;; *************** function _frexp *****************
  2818 ;; Defined at:
  2819 ;;		line 254 in file "C:\Program Files (x86)\Microchip\xc8\v1.33\sources\common\frexp.c"
  2820 ;; Parameters:    Size  Location     Type
  2821 ;;  value           3    0[COMMON] int 
  2822 ;;  eptr            1    3[COMMON] PTR int 
  2823 ;;		 -> log@exponent(2), floor@expon(2), 
  2824 ;; Auto vars:     Size  Location     Type
  2825 ;;		None
  2826 ;; Return value:  Size  Location     Type
  2827 ;;                  3    0[COMMON] PTR int 
  2828 ;; Registers used:
  2829 ;;		wreg, fsr0l, fsr0h, status,2, status,0, btemp+1
  2830 ;; Tracked objects:
  2831 ;;		On entry : 0/0
  2832 ;;		On exit  : 0/0
  2833 ;;		Unchanged: 0/0
  2834 ;; Data sizes:     COMMON   BANK0   BANK1   BANK3   BANK2
  2835 ;;      Params:         4       0       0       0       0
  2836 ;;      Locals:         0       0       0       0       0
  2837 ;;      Temps:          2       0       0       0       0
  2838 ;;      Totals:         6       0       0       0       0
  2839 ;;Total ram usage:        6 bytes
  2840 ;; Hardware stack levels used:    1
  2841 ;; This function calls:
  2842 ;;		Nothing
  2843 ;; This function is called by:
  2844 ;;		_floor
  2845 ;;		_log
  2846 ;; This function uses a non-reentrant model
  2847 ;;
  2848                           
  2849                           
  2850                           ;psect for function _frexp
  2851  0990                     _frexp:	
  2852                           
  2853                           ;incstack = 0
  2854                           ; Regs used in _frexp: [wreg-fsr0h+status,2+status,0+btemp+1]
  2855  0990  0872               	movf	frexp@value+2,w
  2856  0991  0471               	iorwf	frexp@value+1,w
  2857  0992  0470               	iorwf	frexp@value,w
  2858  0993  1D03               	skipz
  2859  0994  29A2               	goto	l1848
  2860  0995  0873               	movf	frexp@eptr,w
  2861  0996  0084               	movwf	4
  2862  0997  1383               	bcf	3,7	;select IRP bank0
  2863  0998  0180               	clrf	0
  2864  0999  0A84               	incf	4,f
  2865  099A  0180               	clrf	0
  2866  099B  3000               	movlw	0
  2867  099C  00F0               	movwf	?_frexp
  2868  099D  3000               	movlw	0
  2869  099E  00F1               	movwf	?_frexp+1
  2870  099F  3000               	movlw	0
  2871  09A0  00F2               	movwf	?_frexp+2
  2872  09A1  0008               	return
  2873  09A2                     l1848:	
  2874  09A2  0872               	movf	frexp@value+2,w
  2875  09A3  397F               	andlw	127
  2876  09A4  00F4               	movwf	??_frexp
  2877  09A5  01F5               	clrf	??_frexp+1
  2878  09A6  1003               	clrc
  2879  09A7  0DF4               	rlf	??_frexp,f
  2880  09A8  0DF5               	rlf	??_frexp+1,f
  2881  09A9  0873               	movf	frexp@eptr,w
  2882  09AA  0084               	movwf	4
  2883  09AB  0874               	movf	??_frexp,w
  2884  09AC  1383               	bcf	3,7	;select IRP bank0
  2885  09AD  0080               	movwf	0
  2886  09AE  0A84               	incf	4,f
  2887  09AF  0875               	movf	??_frexp+1,w
  2888  09B0  0080               	movwf	0
  2889  09B1  0D71               	rlf	frexp@value+1,w
  2890  09B2  0D71               	rlf	frexp@value+1,w
  2891  09B3  3901               	andlw	1
  2892  09B4  00F4               	movwf	??_frexp
  2893  09B5  01F5               	clrf	??_frexp+1
  2894  09B6  0873               	movf	frexp@eptr,w
  2895  09B7  0084               	movwf	4
  2896  09B8  0874               	movf	??_frexp,w
  2897  09B9  0480               	iorwf	0,f
  2898  09BA  0A84               	incf	4,f
  2899  09BB  0875               	movf	??_frexp+1,w
  2900  09BC  0480               	iorwf	0,f
  2901  09BD  0873               	movf	frexp@eptr,w
  2902  09BE  0084               	movwf	4
  2903  09BF  3082               	movlw	130
  2904  09C0  0780               	addwf	0,f
  2905  09C1  0F84               	incfsz	4,f
  2906  09C2  0800               	movf	0,w
  2907  09C3  1803               	skipnc
  2908  09C4  0A00               	incf	0,w
  2909  09C5  00FF               	movwf	127
  2910  09C6  30FF               	movlw	255
  2911  09C7  077F               	addwf	127,w
  2912  09C8  0080               	movwf	0
  2913  09C9  0384               	decf	4,f
  2914  09CA  0872               	movf	frexp@value+2,w
  2915  09CB  3980               	andlw	-128
  2916  09CC  383F               	iorlw	63
  2917  09CD  00F2               	movwf	frexp@value+2
  2918  09CE  13F1               	bcf	frexp@value+1,7
  2919  09CF  0008               	return
  2920  09D0                     __end_of_frexp:	
  2921                           
  2922                           	psect	text8
  2923  0A61                     __ptext8:	
  2924 ;; *************** function ___ftge *****************
  2925 ;; Defined at:
  2926 ;;		line 4 in file "C:\Program Files (x86)\Microchip\xc8\v1.33\sources\common\ftge.c"
  2927 ;; Parameters:    Size  Location     Type
  2928 ;;  ff1             3    0[COMMON] float 
  2929 ;;  ff2             3    3[COMMON] float 
  2930 ;; Auto vars:     Size  Location     Type
  2931 ;;		None
  2932 ;; Return value:  Size  Location     Type
  2933 ;;		None               void
  2934 ;; Registers used:
  2935 ;;		wreg, status,2, status,0
  2936 ;; Tracked objects:
  2937 ;;		On entry : 0/0
  2938 ;;		On exit  : 0/0
  2939 ;;		Unchanged: 0/0
  2940 ;; Data sizes:     COMMON   BANK0   BANK1   BANK3   BANK2
  2941 ;;      Params:         6       0       0       0       0
  2942 ;;      Locals:         0       0       0       0       0
  2943 ;;      Temps:          6       0       0       0       0
  2944 ;;      Totals:        12       0       0       0       0
  2945 ;;Total ram usage:       12 bytes
  2946 ;; Hardware stack levels used:    1
  2947 ;; This function calls:
  2948 ;;		Nothing
  2949 ;; This function is called by:
  2950 ;;		_pow
  2951 ;;		_exp
  2952 ;;		_floor
  2953 ;;		_ldexp
  2954 ;;		_log
  2955 ;; This function uses a non-reentrant model
  2956 ;;
  2957                           
  2958                           
  2959                           ;psect for function ___ftge
  2960  0A61                     ___ftge:	
  2961                           
  2962                           ;incstack = 0
  2963                           ; Regs used in ___ftge: [wreg+status,2+status,0]
  2964  0A61  1FF2               	btfss	___ftge@ff1+2,7
  2965  0A62  2A88               	goto	l1722
  2966  0A63  3000               	movlw	0
  2967  0A64  00F6               	movwf	??___ftge
  2968  0A65  3000               	movlw	0
  2969  0A66  00F7               	movwf	??___ftge+1
  2970  0A67  3080               	movlw	128
  2971  0A68  00F8               	movwf	??___ftge+2
  2972  0A69  0970               	comf	___ftge@ff1,w
  2973  0A6A  00F9               	movwf	??___ftge+3
  2974  0A6B  0971               	comf	___ftge@ff1+1,w
  2975  0A6C  00FA               	movwf	??___ftge+4
  2976  0A6D  0972               	comf	___ftge@ff1+2,w
  2977  0A6E  00FB               	movwf	??___ftge+5
  2978  0A6F  0AF9               	incf	??___ftge+3,f
  2979  0A70  1903               	skipnz
  2980  0A71  0AFA               	incf	??___ftge+4,f
  2981  0A72  1903               	skipnz
  2982  0A73  0AFB               	incf	??___ftge+5,f
  2983  0A74  0879               	movf	??___ftge+3,w
  2984  0A75  07F6               	addwf	??___ftge,f
  2985  0A76  087A               	movf	??___ftge+4,w
  2986  0A77  1803               	skipnc
  2987  0A78  0F7A               	incfsz	??___ftge+4,w
  2988  0A79  2A7B               	goto	u1791
  2989  0A7A  2A7C               	goto	u1792
  2990  0A7B                     u1791:	
  2991  0A7B  07F7               	addwf	??___ftge+1,f
  2992  0A7C                     u1792:	
  2993  0A7C  087B               	movf	??___ftge+5,w
  2994  0A7D  1803               	skipnc
  2995  0A7E  0F7B               	incfsz	??___ftge+5,w
  2996  0A7F  2A81               	goto	u1793
  2997  0A80  2A82               	goto	u1794
  2998  0A81                     u1793:	
  2999  0A81  07F8               	addwf	??___ftge+2,f
  3000  0A82                     u1794:	
  3001  0A82  0876               	movf	??___ftge,w
  3002  0A83  00F0               	movwf	___ftge@ff1
  3003  0A84  0877               	movf	??___ftge+1,w
  3004  0A85  00F1               	movwf	___ftge@ff1+1
  3005  0A86  0878               	movf	??___ftge+2,w
  3006  0A87  00F2               	movwf	___ftge@ff1+2
  3007  0A88                     l1722:	
  3008  0A88  1FF5               	btfss	___ftge@ff2+2,7
  3009  0A89  2AAF               	goto	l1726
  3010  0A8A  3000               	movlw	0
  3011  0A8B  00F6               	movwf	??___ftge
  3012  0A8C  3000               	movlw	0
  3013  0A8D  00F7               	movwf	??___ftge+1
  3014  0A8E  3080               	movlw	128
  3015  0A8F  00F8               	movwf	??___ftge+2
  3016  0A90  0973               	comf	___ftge@ff2,w
  3017  0A91  00F9               	movwf	??___ftge+3
  3018  0A92  0974               	comf	___ftge@ff2+1,w
  3019  0A93  00FA               	movwf	??___ftge+4
  3020  0A94  0975               	comf	___ftge@ff2+2,w
  3021  0A95  00FB               	movwf	??___ftge+5
  3022  0A96  0AF9               	incf	??___ftge+3,f
  3023  0A97  1903               	skipnz
  3024  0A98  0AFA               	incf	??___ftge+4,f
  3025  0A99  1903               	skipnz
  3026  0A9A  0AFB               	incf	??___ftge+5,f
  3027  0A9B  0879               	movf	??___ftge+3,w
  3028  0A9C  07F6               	addwf	??___ftge,f
  3029  0A9D  087A               	movf	??___ftge+4,w
  3030  0A9E  1803               	skipnc
  3031  0A9F  0F7A               	incfsz	??___ftge+4,w
  3032  0AA0  2AA2               	goto	u1811
  3033  0AA1  2AA3               	goto	u1812
  3034  0AA2                     u1811:	
  3035  0AA2  07F7               	addwf	??___ftge+1,f
  3036  0AA3                     u1812:	
  3037  0AA3  087B               	movf	??___ftge+5,w
  3038  0AA4  1803               	skipnc
  3039  0AA5  0F7B               	incfsz	??___ftge+5,w
  3040  0AA6  2AA8               	goto	u1813
  3041  0AA7  2AA9               	goto	u1814
  3042  0AA8                     u1813:	
  3043  0AA8  07F8               	addwf	??___ftge+2,f
  3044  0AA9                     u1814:	
  3045  0AA9  0876               	movf	??___ftge,w
  3046  0AAA  00F3               	movwf	___ftge@ff2
  3047  0AAB  0877               	movf	??___ftge+1,w
  3048  0AAC  00F4               	movwf	___ftge@ff2+1
  3049  0AAD  0878               	movf	??___ftge+2,w
  3050  0AAE  00F5               	movwf	___ftge@ff2+2
  3051  0AAF                     l1726:	
  3052  0AAF  3080               	movlw	128
  3053  0AB0  06F2               	xorwf	___ftge@ff1+2,f
  3054  0AB1  3080               	movlw	128
  3055  0AB2  06F5               	xorwf	___ftge@ff2+2,f
  3056  0AB3  0875               	movf	___ftge@ff2+2,w
  3057  0AB4  0272               	subwf	___ftge@ff1+2,w
  3058  0AB5  1D03               	skipz
  3059  0AB6  0008               	return
  3060  0AB7  0874               	movf	___ftge@ff2+1,w
  3061  0AB8  0271               	subwf	___ftge@ff1+1,w
  3062  0AB9  1D03               	skipz
  3063  0ABA  0008               	return
  3064  0ABB  0873               	movf	___ftge@ff2,w
  3065  0ABC  0270               	subwf	___ftge@ff1,w
  3066  0ABD  0008               	return
  3067  0ABE                     __end_of___ftge:	
  3068                           
  3069                           	psect	text9
  3070  09D0                     __ptext9:	
  3071 ;; *************** function ___altoft *****************
  3072 ;; Defined at:
  3073 ;;		line 42 in file "C:\Program Files (x86)\Microchip\xc8\v1.33\sources\common\altoft.c"
  3074 ;; Parameters:    Size  Location     Type
  3075 ;;  c               4   59[BANK0 ] long 
  3076 ;; Auto vars:     Size  Location     Type
  3077 ;;  sign            1   66[BANK0 ] unsigned char 
  3078 ;;  exp             1   65[BANK0 ] unsigned char 
  3079 ;; Return value:  Size  Location     Type
  3080 ;;                  3   59[BANK0 ] float 
  3081 ;; Registers used:
  3082 ;;		wreg, status,2, status,0, pclath, cstack
  3083 ;; Tracked objects:
  3084 ;;		On entry : 0/0
  3085 ;;		On exit  : 0/0
  3086 ;;		Unchanged: 0/0
  3087 ;; Data sizes:     COMMON   BANK0   BANK1   BANK3   BANK2
  3088 ;;      Params:         0       4       0       0       0
  3089 ;;      Locals:         0       2       0       0       0
  3090 ;;      Temps:          0       2       0       0       0
  3091 ;;      Totals:         0       8       0       0       0
  3092 ;;Total ram usage:        8 bytes
  3093 ;; Hardware stack levels used:    1
  3094 ;; Hardware stack levels required when called:    1
  3095 ;; This function calls:
  3096 ;;		___ftpack
  3097 ;; This function is called by:
  3098 ;;		_floor
  3099 ;; This function uses a non-reentrant model
  3100 ;;
  3101                           
  3102                           
  3103                           ;psect for function ___altoft
  3104  09D0                     ___altoft:	
  3105                           
  3106                           ;incstack = 0
  3107                           ; Regs used in ___altoft: [wreg+status,2+status,0+pclath+cstack]
  3108  09D0  1283               	bcf	3,5	;RP0=0, select bank0
  3109  09D1  1303               	bcf	3,6	;RP1=0, select bank0
  3110  09D2  01E2               	clrf	___altoft@sign
  3111  09D3  308E               	movlw	142
  3112  09D4  00DF               	movwf	??___altoft
  3113  09D5  085F               	movf	??___altoft,w
  3114  09D6  00E1               	movwf	___altoft@exp
  3115  09D7  1FDE               	btfss	___altoft@c+3,7
  3116  09D8  29E6               	goto	l1640
  3117  09D9  09DB               	comf	___altoft@c,f
  3118  09DA  09DC               	comf	___altoft@c+1,f
  3119  09DB  09DD               	comf	___altoft@c+2,f
  3120  09DC  09DE               	comf	___altoft@c+3,f
  3121  09DD  0ADB               	incf	___altoft@c,f
  3122  09DE  1903               	skipnz
  3123  09DF  0ADC               	incf	___altoft@c+1,f
  3124  09E0  1903               	skipnz
  3125  09E1  0ADD               	incf	___altoft@c+2,f
  3126  09E2  1903               	skipnz
  3127  09E3  0ADE               	incf	___altoft@c+3,f
  3128  09E4  01E2               	clrf	___altoft@sign
  3129  09E5  0AE2               	incf	___altoft@sign,f
  3130  09E6                     l1640:	
  3131  09E6  30FF               	movlw	255
  3132  09E7  055E               	andwf	___altoft@c+3,w
  3133  09E8  1903               	btfsc	3,2
  3134  09E9  29F8               	goto	l1642
  3135  09EA  3001               	movlw	1
  3136  09EB                     u1525:	
  3137  09EB  1003               	clrc
  3138  09EC  0CDE               	rrf	___altoft@c+3,f
  3139  09ED  0CDD               	rrf	___altoft@c+2,f
  3140  09EE  0CDC               	rrf	___altoft@c+1,f
  3141  09EF  0CDB               	rrf	___altoft@c,f
  3142  09F0  3EFF               	addlw	-1
  3143  09F1  1D03               	skipz
  3144  09F2  29EB               	goto	u1525
  3145  09F3  3001               	movlw	1
  3146  09F4  00DF               	movwf	??___altoft
  3147  09F5  085F               	movf	??___altoft,w
  3148  09F6  07E1               	addwf	___altoft@exp,f
  3149  09F7  29E6               	goto	l1640
  3150  09F8                     l1642:	
  3151  09F8  085B               	movf	___altoft@c,w
  3152  09F9  00F0               	movwf	___ftpack@arg
  3153  09FA  085C               	movf	___altoft@c+1,w
  3154  09FB  00F1               	movwf	___ftpack@arg+1
  3155  09FC  085D               	movf	___altoft@c+2,w
  3156  09FD  00F2               	movwf	___ftpack@arg+2
  3157  09FE  0861               	movf	___altoft@exp,w
  3158  09FF  00DF               	movwf	??___altoft
  3159  0A00  085F               	movf	??___altoft,w
  3160  0A01  00F3               	movwf	___ftpack@exp
  3161  0A02  0862               	movf	___altoft@sign,w
  3162  0A03  00E0               	movwf	??___altoft+1
  3163  0A04  0860               	movf	??___altoft+1,w
  3164  0A05  00F4               	movwf	___ftpack@sign
  3165  0A06  120A  158A  2324   	fcall	___ftpack
  3166  0A09  0870               	movf	?___ftpack,w
  3167  0A0A  1283               	bcf	3,5	;RP0=0, select bank0
  3168  0A0B  1303               	bcf	3,6	;RP1=0, select bank0
  3169  0A0C  00DB               	movwf	?___altoft
  3170  0A0D  0871               	movf	?___ftpack+1,w
  3171  0A0E  00DC               	movwf	?___altoft+1
  3172  0A0F  0872               	movf	?___ftpack+2,w
  3173  0A10  00DD               	movwf	?___altoft+2
  3174  0A11  0008               	return
  3175  0A12                     __end_of___altoft:	
  3176                           
  3177                           	psect	text10
  3178  0B8C                     __ptext10:	
  3179 ;; *************** function _eval_poly *****************
  3180 ;; Defined at:
  3181 ;;		line 4 in file "C:\Program Files (x86)\Microchip\xc8\v1.33\sources\common\evalpoly.c"
  3182 ;; Parameters:    Size  Location     Type
  3183 ;;  x               3   45[BANK0 ] float 
  3184 ;;  d               1   48[BANK0 ] PTR const 
  3185 ;;		 -> log@coeff(27), exp@coeff(30), 
  3186 ;;  n               2   49[BANK0 ] int 
  3187 ;; Auto vars:     Size  Location     Type
  3188 ;;  res             3   52[BANK0 ] int 
  3189 ;; Return value:  Size  Location     Type
  3190 ;;                  3   45[BANK0 ] int 
  3191 ;; Registers used:
  3192 ;;		wreg, fsr0l, fsr0h, status,2, status,0, pclath, cstack
  3193 ;; Tracked objects:
  3194 ;;		On entry : 0/0
  3195 ;;		On exit  : 0/0
  3196 ;;		Unchanged: 0/0
  3197 ;; Data sizes:     COMMON   BANK0   BANK1   BANK3   BANK2
  3198 ;;      Params:         0       6       0       0       0
  3199 ;;      Locals:         0       3       0       0       0
  3200 ;;      Temps:          0       1       0       0       0
  3201 ;;      Totals:         0      10       0       0       0
  3202 ;;Total ram usage:       10 bytes
  3203 ;; Hardware stack levels used:    1
  3204 ;; Hardware stack levels required when called:    2
  3205 ;; This function calls:
  3206 ;;		___bmul
  3207 ;;		___ftadd
  3208 ;;		___ftmul
  3209 ;; This function is called by:
  3210 ;;		_exp
  3211 ;;		_log
  3212 ;; This function uses a non-reentrant model
  3213 ;;
  3214                           
  3215                           
  3216                           ;psect for function _eval_poly
  3217  0B8C                     _eval_poly:	
  3218                           
  3219                           ;incstack = 0
  3220                           ; Regs used in _eval_poly: [wreg-fsr0h+status,2+status,0+pclath+cstack]
  3221  0B8C  3003               	movlw	3
  3222  0B8D  1283               	bcf	3,5	;RP0=0, select bank0
  3223  0B8E  1303               	bcf	3,6	;RP1=0, select bank0
  3224  0B8F  00D3               	movwf	??_eval_poly
  3225  0B90  0853               	movf	??_eval_poly,w
  3226  0B91  00F0               	movwf	___bmul@multiplicand
  3227  0B92  0851               	movf	eval_poly@n,w
  3228  0B93  160A  118A  27EF  120A  158A  	fcall	___bmul
  3229  0B98  1283               	bcf	3,5	;RP0=0, select bank0
  3230  0B99  1303               	bcf	3,6	;RP1=0, select bank0
  3231  0B9A  0750               	addwf	eval_poly@d,w
  3232  0B9B  0084               	movwf	4
  3233  0B9C  120A  158A  2000  120A  158A  	fcall	stringdir
  3234  0BA1  00D4               	movwf	eval_poly@res
  3235  0BA2  120A  158A  2000  120A  158A  	fcall	stringdir
  3236  0BA7  00D5               	movwf	eval_poly@res+1
  3237  0BA8  120A  158A  2000  120A  158A  	fcall	stringdir
  3238  0BAD                     L3:	
  3239  0BAD  00D6               	movwf	eval_poly@res+2
  3240  0BAE  0852               	movf	eval_poly@n+1,w
  3241  0BAF  0451               	iorwf	eval_poly@n,w
  3242  0BB0  1903               	btfsc	3,2
  3243  0BB1  2BFE               	goto	l2008
  3244  0BB2  3003               	movlw	3
  3245  0BB3  00D3               	movwf	??_eval_poly
  3246  0BB4  0853               	movf	??_eval_poly,w
  3247  0BB5  00F0               	movwf	___bmul@multiplicand
  3248  0BB6  30FF               	movlw	255
  3249  0BB7  07D1               	addwf	eval_poly@n,f
  3250  0BB8  1803               	skipnc
  3251  0BB9  0AD2               	incf	eval_poly@n+1,f
  3252  0BBA  30FF               	movlw	255
  3253  0BBB  07D2               	addwf	eval_poly@n+1,f
  3254  0BBC  0851               	movf	eval_poly@n,w
  3255  0BBD  160A  118A  27EF  120A  158A  	fcall	___bmul
  3256  0BC2  1283               	bcf	3,5	;RP0=0, select bank0
  3257  0BC3  1303               	bcf	3,6	;RP1=0, select bank0
  3258  0BC4  0750               	addwf	eval_poly@d,w
  3259  0BC5  0084               	movwf	4
  3260  0BC6  120A  158A  2000  120A  158A  	fcall	stringdir
  3261  0BCB  00C0               	movwf	___ftadd@f1
  3262  0BCC  120A  158A  2000  120A  158A  	fcall	stringdir
  3263  0BD1  00C1               	movwf	___ftadd@f1+1
  3264  0BD2  120A  158A  2000  120A  158A  	fcall	stringdir
  3265  0BD7  00C2               	movwf	___ftadd@f1+2
  3266  0BD8  0854               	movf	eval_poly@res,w
  3267  0BD9  00B0               	movwf	___ftmul@f1
  3268  0BDA  0855               	movf	eval_poly@res+1,w
  3269  0BDB  00B1               	movwf	___ftmul@f1+1
  3270  0BDC  0856               	movf	eval_poly@res+2,w
  3271  0BDD  00B2               	movwf	___ftmul@f1+2
  3272  0BDE  084D               	movf	eval_poly@x,w
  3273  0BDF  00B3               	movwf	___ftmul@f2
  3274  0BE0  084E               	movf	eval_poly@x+1,w
  3275  0BE1  00B4               	movwf	___ftmul@f2+1
  3276  0BE2  084F               	movf	eval_poly@x+2,w
  3277  0BE3  00B5               	movwf	___ftmul@f2+2
  3278  0BE4  120A  118A  2025  120A  158A  	fcall	___ftmul
  3279  0BE9  1283               	bcf	3,5	;RP0=0, select bank0
  3280  0BEA  1303               	bcf	3,6	;RP1=0, select bank0
  3281  0BEB  0830               	movf	?___ftmul,w
  3282  0BEC  00C3               	movwf	___ftadd@f2
  3283  0BED  0831               	movf	?___ftmul+1,w
  3284  0BEE  00C4               	movwf	___ftadd@f2+1
  3285  0BEF  0832               	movf	?___ftmul+2,w
  3286  0BF0  00C5               	movwf	___ftadd@f2+2
  3287  0BF1  120A  118A  21D1  120A  158A  	fcall	___ftadd
  3288  0BF6  1283               	bcf	3,5	;RP0=0, select bank0
  3289  0BF7  1303               	bcf	3,6	;RP1=0, select bank0
  3290  0BF8  0840               	movf	?___ftadd,w
  3291  0BF9  00D4               	movwf	eval_poly@res
  3292  0BFA  0841               	movf	?___ftadd+1,w
  3293  0BFB  00D5               	movwf	eval_poly@res+1
  3294  0BFC  0842               	movf	?___ftadd+2,w
  3295  0BFD  2BAD               	goto	L3
  3296  0BFE                     l2008:	
  3297  0BFE  0854               	movf	eval_poly@res,w
  3298  0BFF  00CD               	movwf	?_eval_poly
  3299  0C00  0855               	movf	eval_poly@res+1,w
  3300  0C01  00CE               	movwf	?_eval_poly+1
  3301  0C02  0856               	movf	eval_poly@res+2,w
  3302  0C03  00CF               	movwf	?_eval_poly+2
  3303  0C04  0008               	return
  3304  0C05                     __end_of_eval_poly:	
  3305                           
  3306                           	psect	text11
  3307  0025                     __ptext11:	
  3308 ;; *************** function ___ftmul *****************
  3309 ;; Defined at:
  3310 ;;		line 62 in file "C:\Program Files (x86)\Microchip\xc8\v1.33\sources\common\ftmul.c"
  3311 ;; Parameters:    Size  Location     Type
  3312 ;;  f1              3   16[BANK0 ] float 
  3313 ;;  f2              3   19[BANK0 ] float 
  3314 ;; Auto vars:     Size  Location     Type
  3315 ;;  f3_as_produc    3   27[BANK0 ] unsigned um
  3316 ;;  sign            1   31[BANK0 ] unsigned char 
  3317 ;;  cntr            1   30[BANK0 ] unsigned char 
  3318 ;;  exp             1   26[BANK0 ] unsigned char 
  3319 ;; Return value:  Size  Location     Type
  3320 ;;                  3   16[BANK0 ] float 
  3321 ;; Registers used:
  3322 ;;		wreg, status,2, status,0, pclath, cstack
  3323 ;; Tracked objects:
  3324 ;;		On entry : 0/0
  3325 ;;		On exit  : 0/0
  3326 ;;		Unchanged: 0/0
  3327 ;; Data sizes:     COMMON   BANK0   BANK1   BANK3   BANK2
  3328 ;;      Params:         0       6       0       0       0
  3329 ;;      Locals:         0       6       0       0       0
  3330 ;;      Temps:          0       4       0       0       0
  3331 ;;      Totals:         0      16       0       0       0
  3332 ;;Total ram usage:       16 bytes
  3333 ;; Hardware stack levels used:    1
  3334 ;; Hardware stack levels required when called:    1
  3335 ;; This function calls:
  3336 ;;		___ftpack
  3337 ;; This function is called by:
  3338 ;;		_main
  3339 ;;		_pow
  3340 ;;		_exp
  3341 ;;		_log
  3342 ;;		_eval_poly
  3343 ;; This function uses a non-reentrant model
  3344 ;;
  3345                           
  3346                           
  3347                           ;psect for function ___ftmul
  3348  0025                     ___ftmul:	
  3349                           
  3350                           ;incstack = 0
  3351                           ; Regs used in ___ftmul: [wreg+status,2+status,0+pclath+cstack]
  3352  0025  1283               	bcf	3,5	;RP0=0, select bank0
  3353  0026  1303               	bcf	3,6	;RP1=0, select bank0
  3354  0027  0830               	movf	___ftmul@f1,w
  3355  0028  00B6               	movwf	??___ftmul
  3356  0029  0831               	movf	___ftmul@f1+1,w
  3357  002A  00B7               	movwf	??___ftmul+1
  3358  002B  0832               	movf	___ftmul@f1+2,w
  3359  002C  00B8               	movwf	??___ftmul+2
  3360  002D  1003               	clrc
  3361  002E  0D37               	rlf	??___ftmul+1,w
  3362  002F  0D38               	rlf	??___ftmul+2,w
  3363  0030  00B9               	movwf	??___ftmul+3
  3364  0031  0839               	movf	??___ftmul+3,w
  3365  0032  00BA               	movwf	___ftmul@exp
  3366  0033  08BA               	movf	___ftmul@exp,f
  3367  0034  1D03               	skipz
  3368  0035  283D               	goto	l1744
  3369  0036  3000               	movlw	0
  3370  0037  00B0               	movwf	?___ftmul
  3371  0038  3000               	movlw	0
  3372  0039  00B1               	movwf	?___ftmul+1
  3373  003A  3000               	movlw	0
  3374  003B  00B2               	movwf	?___ftmul+2
  3375  003C  0008               	return
  3376  003D                     l1744:	
  3377  003D  0833               	movf	___ftmul@f2,w
  3378  003E  00B6               	movwf	??___ftmul
  3379  003F  0834               	movf	___ftmul@f2+1,w
  3380  0040  00B7               	movwf	??___ftmul+1
  3381  0041  0835               	movf	___ftmul@f2+2,w
  3382  0042  00B8               	movwf	??___ftmul+2
  3383  0043  1003               	clrc
  3384  0044  0D37               	rlf	??___ftmul+1,w
  3385  0045  0D38               	rlf	??___ftmul+2,w
  3386  0046  00B9               	movwf	??___ftmul+3
  3387  0047  0839               	movf	??___ftmul+3,w
  3388  0048  00BF               	movwf	___ftmul@sign
  3389  0049  08BF               	movf	___ftmul@sign,f
  3390  004A  1D03               	skipz
  3391  004B  2853               	goto	l1750
  3392  004C  3000               	movlw	0
  3393  004D  00B0               	movwf	?___ftmul
  3394  004E  3000               	movlw	0
  3395  004F  00B1               	movwf	?___ftmul+1
  3396  0050  3000               	movlw	0
  3397  0051  00B2               	movwf	?___ftmul+2
  3398  0052  0008               	return
  3399  0053                     l1750:	
  3400  0053  083F               	movf	___ftmul@sign,w
  3401  0054  3E7B               	addlw	123
  3402  0055  00B6               	movwf	??___ftmul
  3403  0056  0836               	movf	??___ftmul,w
  3404  0057  07BA               	addwf	___ftmul@exp,f
  3405  0058  0830               	movf	___ftmul@f1,w
  3406  0059  00B6               	movwf	??___ftmul
  3407  005A  0831               	movf	___ftmul@f1+1,w
  3408  005B  00B7               	movwf	??___ftmul+1
  3409  005C  0832               	movf	___ftmul@f1+2,w
  3410  005D  00B8               	movwf	??___ftmul+2
  3411  005E  3010               	movlw	16
  3412  005F                     u1855:	
  3413  005F  1003               	clrc
  3414  0060  0CB8               	rrf	??___ftmul+2,f
  3415  0061  0CB7               	rrf	??___ftmul+1,f
  3416  0062  0CB6               	rrf	??___ftmul,f
  3417  0063  3EFF               	addlw	-1
  3418  0064  1D03               	skipz
  3419  0065  285F               	goto	u1855
  3420  0066  0836               	movf	??___ftmul,w
  3421  0067  00B9               	movwf	??___ftmul+3
  3422  0068  0839               	movf	??___ftmul+3,w
  3423  0069  00BF               	movwf	___ftmul@sign
  3424  006A  0833               	movf	___ftmul@f2,w
  3425  006B  00B6               	movwf	??___ftmul
  3426  006C  0834               	movf	___ftmul@f2+1,w
  3427  006D  00B7               	movwf	??___ftmul+1
  3428  006E  0835               	movf	___ftmul@f2+2,w
  3429  006F  00B8               	movwf	??___ftmul+2
  3430  0070  3010               	movlw	16
  3431  0071                     u1865:	
  3432  0071  1003               	clrc
  3433  0072  0CB8               	rrf	??___ftmul+2,f
  3434  0073  0CB7               	rrf	??___ftmul+1,f
  3435  0074  0CB6               	rrf	??___ftmul,f
  3436  0075  3EFF               	addlw	-1
  3437  0076  1D03               	skipz
  3438  0077  2871               	goto	u1865
  3439  0078  0836               	movf	??___ftmul,w
  3440  0079  00B9               	movwf	??___ftmul+3
  3441  007A  0839               	movf	??___ftmul+3,w
  3442  007B  06BF               	xorwf	___ftmul@sign,f
  3443  007C  3080               	movlw	128
  3444  007D  00B6               	movwf	??___ftmul
  3445  007E  0836               	movf	??___ftmul,w
  3446  007F  05BF               	andwf	___ftmul@sign,f
  3447  0080  17B1               	bsf	___ftmul@f1+1,7
  3448  0081  17B4               	bsf	___ftmul@f2+1,7
  3449  0082  30FF               	movlw	255
  3450  0083  05B3               	andwf	___ftmul@f2,f
  3451  0084  30FF               	movlw	255
  3452  0085  05B4               	andwf	___ftmul@f2+1,f
  3453  0086  3000               	movlw	0
  3454  0087  05B5               	andwf	___ftmul@f2+2,f
  3455  0088  3000               	movlw	0
  3456  0089  00BB               	movwf	___ftmul@f3_as_product
  3457  008A  3000               	movlw	0
  3458  008B  00BC               	movwf	___ftmul@f3_as_product+1
  3459  008C  3000               	movlw	0
  3460  008D  00BD               	movwf	___ftmul@f3_as_product+2
  3461  008E  3007               	movlw	7
  3462  008F  00B6               	movwf	??___ftmul
  3463  0090  0836               	movf	??___ftmul,w
  3464  0091  00BE               	movwf	___ftmul@cntr
  3465  0092                     l1762:	
  3466  0092  1C30               	btfss	___ftmul@f1,0
  3467  0093  28A2               	goto	l1766
  3468  0094  0833               	movf	___ftmul@f2,w
  3469  0095  07BB               	addwf	___ftmul@f3_as_product,f
  3470  0096  0834               	movf	___ftmul@f2+1,w
  3471  0097  1103               	clrz
  3472  0098  1803               	skipnc
  3473  0099  0A34               	incf	___ftmul@f2+1,w
  3474  009A  1D03               	btfss	3,2
  3475  009B  07BC               	addwf	___ftmul@f3_as_product+1,f
  3476  009C  0835               	movf	___ftmul@f2+2,w
  3477  009D  1103               	clrz
  3478  009E  1803               	skipnc
  3479  009F  0A35               	incf	___ftmul@f2+2,w
  3480  00A0  1D03               	btfss	3,2
  3481  00A1  07BD               	addwf	___ftmul@f3_as_product+2,f
  3482  00A2                     l1766:	
  3483  00A2  3001               	movlw	1
  3484  00A3                     u1895:	
  3485  00A3  1003               	clrc
  3486  00A4  0CB2               	rrf	___ftmul@f1+2,f
  3487  00A5  0CB1               	rrf	___ftmul@f1+1,f
  3488  00A6  0CB0               	rrf	___ftmul@f1,f
  3489  00A7  3EFF               	addlw	-1
  3490  00A8  1D03               	skipz
  3491  00A9  28A3               	goto	u1895
  3492  00AA  3001               	movlw	1
  3493  00AB                     u1905:	
  3494  00AB  1003               	clrc
  3495  00AC  0DB3               	rlf	___ftmul@f2,f
  3496  00AD  0DB4               	rlf	___ftmul@f2+1,f
  3497  00AE  0DB5               	rlf	___ftmul@f2+2,f
  3498  00AF  3EFF               	addlw	-1
  3499  00B0  1D03               	skipz
  3500  00B1  28AB               	goto	u1905
  3501  00B2  3001               	movlw	1
  3502  00B3  02BE               	subwf	___ftmul@cntr,f
  3503  00B4  1D03               	btfss	3,2
  3504  00B5  2892               	goto	l1762
  3505  00B6  3009               	movlw	9
  3506  00B7  00B6               	movwf	??___ftmul
  3507  00B8  0836               	movf	??___ftmul,w
  3508  00B9  00BE               	movwf	___ftmul@cntr
  3509  00BA                     l1774:	
  3510  00BA  1C30               	btfss	___ftmul@f1,0
  3511  00BB  28CA               	goto	l1778
  3512  00BC  0833               	movf	___ftmul@f2,w
  3513  00BD  07BB               	addwf	___ftmul@f3_as_product,f
  3514  00BE  0834               	movf	___ftmul@f2+1,w
  3515  00BF  1103               	clrz
  3516  00C0  1803               	skipnc
  3517  00C1  0A34               	incf	___ftmul@f2+1,w
  3518  00C2  1D03               	btfss	3,2
  3519  00C3  07BC               	addwf	___ftmul@f3_as_product+1,f
  3520  00C4  0835               	movf	___ftmul@f2+2,w
  3521  00C5  1103               	clrz
  3522  00C6  1803               	skipnc
  3523  00C7  0A35               	incf	___ftmul@f2+2,w
  3524  00C8  1D03               	btfss	3,2
  3525  00C9  07BD               	addwf	___ftmul@f3_as_product+2,f
  3526  00CA                     l1778:	
  3527  00CA  3001               	movlw	1
  3528  00CB                     u1945:	
  3529  00CB  1003               	clrc
  3530  00CC  0CB2               	rrf	___ftmul@f1+2,f
  3531  00CD  0CB1               	rrf	___ftmul@f1+1,f
  3532  00CE  0CB0               	rrf	___ftmul@f1,f
  3533  00CF  3EFF               	addlw	-1
  3534  00D0  1D03               	skipz
  3535  00D1  28CB               	goto	u1945
  3536  00D2  3001               	movlw	1
  3537  00D3                     u1955:	
  3538  00D3  1003               	clrc
  3539  00D4  0CBD               	rrf	___ftmul@f3_as_product+2,f
  3540  00D5  0CBC               	rrf	___ftmul@f3_as_product+1,f
  3541  00D6  0CBB               	rrf	___ftmul@f3_as_product,f
  3542  00D7  3EFF               	addlw	-1
  3543  00D8  1D03               	skipz
  3544  00D9  28D3               	goto	u1955
  3545  00DA  3001               	movlw	1
  3546  00DB  02BE               	subwf	___ftmul@cntr,f
  3547  00DC  1D03               	btfss	3,2
  3548  00DD  28BA               	goto	l1774
  3549  00DE  083B               	movf	___ftmul@f3_as_product,w
  3550  00DF  00F0               	movwf	___ftpack@arg
  3551  00E0  083C               	movf	___ftmul@f3_as_product+1,w
  3552  00E1  00F1               	movwf	___ftpack@arg+1
  3553  00E2  083D               	movf	___ftmul@f3_as_product+2,w
  3554  00E3  00F2               	movwf	___ftpack@arg+2
  3555  00E4  083A               	movf	___ftmul@exp,w
  3556  00E5  00B6               	movwf	??___ftmul
  3557  00E6  0836               	movf	??___ftmul,w
  3558  00E7  00F3               	movwf	___ftpack@exp
  3559  00E8  083F               	movf	___ftmul@sign,w
  3560  00E9  00B7               	movwf	??___ftmul+1
  3561  00EA  0837               	movf	??___ftmul+1,w
  3562  00EB  00F4               	movwf	___ftpack@sign
  3563  00EC  120A  158A  2324   	fcall	___ftpack
  3564  00EF  0870               	movf	?___ftpack,w
  3565  00F0  1283               	bcf	3,5	;RP0=0, select bank0
  3566  00F1  1303               	bcf	3,6	;RP1=0, select bank0
  3567  00F2  00B0               	movwf	?___ftmul
  3568  00F3  0871               	movf	?___ftpack+1,w
  3569  00F4  00B1               	movwf	?___ftmul+1
  3570  00F5  0872               	movf	?___ftpack+2,w
  3571  00F6  00B2               	movwf	?___ftmul+2
  3572  00F7  0008               	return
  3573  00F8                     __end_of___ftmul:	
  3574                           
  3575                           	psect	text12
  3576  17EF                     __ptext12:	
  3577 ;; *************** function ___bmul *****************
  3578 ;; Defined at:
  3579 ;;		line 4 in file "C:\Program Files (x86)\Microchip\xc8\v1.33\sources\common\Umul8.c"
  3580 ;; Parameters:    Size  Location     Type
  3581 ;;  multiplier      1    wreg     unsigned char 
  3582 ;;  multiplicand    1    0[COMMON] unsigned char 
  3583 ;; Auto vars:     Size  Location     Type
  3584 ;;  multiplier      1    3[COMMON] unsigned char 
  3585 ;;  product         1    2[COMMON] unsigned char 
  3586 ;; Return value:  Size  Location     Type
  3587 ;;                  1    wreg      unsigned char 
  3588 ;; Registers used:
  3589 ;;		wreg, status,2, status,0
  3590 ;; Tracked objects:
  3591 ;;		On entry : 0/0
  3592 ;;		On exit  : 0/0
  3593 ;;		Unchanged: 0/0
  3594 ;; Data sizes:     COMMON   BANK0   BANK1   BANK3   BANK2
  3595 ;;      Params:         1       0       0       0       0
  3596 ;;      Locals:         2       0       0       0       0
  3597 ;;      Temps:          1       0       0       0       0
  3598 ;;      Totals:         4       0       0       0       0
  3599 ;;Total ram usage:        4 bytes
  3600 ;; Hardware stack levels used:    1
  3601 ;; This function calls:
  3602 ;;		Nothing
  3603 ;; This function is called by:
  3604 ;;		_eval_poly
  3605 ;; This function uses a non-reentrant model
  3606 ;;
  3607                           
  3608                           
  3609                           ;psect for function ___bmul
  3610  17EF                     ___bmul:	
  3611                           
  3612                           ;incstack = 0
  3613                           ; Regs used in ___bmul: [wreg+status,2+status,0]
  3614                           ;___bmul@multiplier stored from wreg
  3615  17EF  00F3               	movwf	___bmul@multiplier
  3616  17F0  01F2               	clrf	___bmul@product
  3617  17F1                     l1616:	
  3618  17F1  1C73               	btfss	___bmul@multiplier,0
  3619  17F2  2FF7               	goto	l1620
  3620  17F3  0870               	movf	___bmul@multiplicand,w
  3621  17F4  00F1               	movwf	??___bmul
  3622  17F5  0871               	movf	??___bmul,w
  3623  17F6  07F2               	addwf	___bmul@product,f
  3624  17F7                     l1620:	
  3625  17F7  1003               	clrc
  3626  17F8  0DF0               	rlf	___bmul@multiplicand,f
  3627  17F9  1003               	clrc
  3628  17FA  0CF3               	rrf	___bmul@multiplier,f
  3629  17FB  08F3               	movf	___bmul@multiplier,f
  3630  17FC  1D03               	skipz
  3631  17FD  2FF1               	goto	l1616
  3632  17FE  0872               	movf	___bmul@product,w
  3633  17FF  0008               	return
  3634  1800                     __end_of___bmul:	
  3635                           
  3636                           	psect	text13
  3637  08B1                     __ptext13:	
  3638 ;; *************** function ___ftsub *****************
  3639 ;; Defined at:
  3640 ;;		line 18 in file "C:\Program Files (x86)\Microchip\xc8\v1.33\sources\common\ftsub.c"
  3641 ;; Parameters:    Size  Location     Type
  3642 ;;  f2              3   45[BANK0 ] float 
  3643 ;;  f1              3   48[BANK0 ] float 
  3644 ;; Auto vars:     Size  Location     Type
  3645 ;;		None
  3646 ;; Return value:  Size  Location     Type
  3647 ;;                  3   45[BANK0 ] float 
  3648 ;; Registers used:
  3649 ;;		wreg, status,2, status,0, pclath, cstack
  3650 ;; Tracked objects:
  3651 ;;		On entry : 0/0
  3652 ;;		On exit  : 0/0
  3653 ;;		Unchanged: 0/0
  3654 ;; Data sizes:     COMMON   BANK0   BANK1   BANK3   BANK2
  3655 ;;      Params:         0       6       0       0       0
  3656 ;;      Locals:         0       0       0       0       0
  3657 ;;      Temps:          0       0       0       0       0
  3658 ;;      Totals:         0       6       0       0       0
  3659 ;;Total ram usage:        6 bytes
  3660 ;; Hardware stack levels used:    1
  3661 ;; Hardware stack levels required when called:    2
  3662 ;; This function calls:
  3663 ;;		___ftadd
  3664 ;; This function is called by:
  3665 ;;		_exp
  3666 ;; This function uses a non-reentrant model
  3667 ;;
  3668                           
  3669                           
  3670                           ;psect for function ___ftsub
  3671  08B1                     ___ftsub:	
  3672                           
  3673                           ;incstack = 0
  3674                           ; Regs used in ___ftsub: [wreg+status,2+status,0+pclath+cstack]
  3675  08B1  3080               	movlw	128
  3676  08B2  1283               	bcf	3,5	;RP0=0, select bank0
  3677  08B3  1303               	bcf	3,6	;RP1=0, select bank0
  3678  08B4  06CF               	xorwf	___ftsub@f2+2,f
  3679  08B5  0850               	movf	___ftsub@f1,w
  3680  08B6  00C0               	movwf	___ftadd@f1
  3681  08B7  0851               	movf	___ftsub@f1+1,w
  3682  08B8  00C1               	movwf	___ftadd@f1+1
  3683  08B9  0852               	movf	___ftsub@f1+2,w
  3684  08BA  00C2               	movwf	___ftadd@f1+2
  3685  08BB  084D               	movf	___ftsub@f2,w
  3686  08BC  00C3               	movwf	___ftadd@f2
  3687  08BD  084E               	movf	___ftsub@f2+1,w
  3688  08BE  00C4               	movwf	___ftadd@f2+1
  3689  08BF  084F               	movf	___ftsub@f2+2,w
  3690  08C0  00C5               	movwf	___ftadd@f2+2
  3691  08C1  120A  118A  21D1   	fcall	___ftadd
  3692  08C4  1283               	bcf	3,5	;RP0=0, select bank0
  3693  08C5  1303               	bcf	3,6	;RP1=0, select bank0
  3694  08C6  0840               	movf	?___ftadd,w
  3695  08C7  00CD               	movwf	?___ftsub
  3696  08C8  0841               	movf	?___ftadd+1,w
  3697  08C9  00CE               	movwf	?___ftsub+1
  3698  08CA  0842               	movf	?___ftadd+2,w
  3699  08CB  00CF               	movwf	?___ftsub+2
  3700  08CC  0008               	return
  3701  08CD                     __end_of___ftsub:	
  3702                           
  3703                           	psect	text14
  3704  01D1                     __ptext14:	
  3705 ;; *************** function ___ftadd *****************
  3706 ;; Defined at:
  3707 ;;		line 86 in file "C:\Program Files (x86)\Microchip\xc8\v1.33\sources\common\ftadd.c"
  3708 ;; Parameters:    Size  Location     Type
  3709 ;;  f1              3   32[BANK0 ] float 
  3710 ;;  f2              3   35[BANK0 ] float 
  3711 ;; Auto vars:     Size  Location     Type
  3712 ;;  exp1            1   44[BANK0 ] unsigned char 
  3713 ;;  exp2            1   43[BANK0 ] unsigned char 
  3714 ;;  sign            1   42[BANK0 ] unsigned char 
  3715 ;; Return value:  Size  Location     Type
  3716 ;;                  3   32[BANK0 ] float 
  3717 ;; Registers used:
  3718 ;;		wreg, status,2, status,0, pclath, cstack
  3719 ;; Tracked objects:
  3720 ;;		On entry : 0/0
  3721 ;;		On exit  : 0/0
  3722 ;;		Unchanged: 0/0
  3723 ;; Data sizes:     COMMON   BANK0   BANK1   BANK3   BANK2
  3724 ;;      Params:         0       6       0       0       0
  3725 ;;      Locals:         0       3       0       0       0
  3726 ;;      Temps:          0       4       0       0       0
  3727 ;;      Totals:         0      13       0       0       0
  3728 ;;Total ram usage:       13 bytes
  3729 ;; Hardware stack levels used:    1
  3730 ;; Hardware stack levels required when called:    1
  3731 ;; This function calls:
  3732 ;;		___ftpack
  3733 ;; This function is called by:
  3734 ;;		_main
  3735 ;;		___ftsub
  3736 ;;		_floor
  3737 ;;		_log
  3738 ;;		_eval_poly
  3739 ;; This function uses a non-reentrant model
  3740 ;;
  3741                           
  3742                           
  3743                           ;psect for function ___ftadd
  3744  01D1                     ___ftadd:	
  3745                           
  3746                           ;incstack = 0
  3747                           ; Regs used in ___ftadd: [wreg+status,2+status,0+pclath+cstack]
  3748  01D1  1283               	bcf	3,5	;RP0=0, select bank0
  3749  01D2  1303               	bcf	3,6	;RP1=0, select bank0
  3750  01D3  0840               	movf	___ftadd@f1,w
  3751  01D4  00C6               	movwf	??___ftadd
  3752  01D5  0841               	movf	___ftadd@f1+1,w
  3753  01D6  00C7               	movwf	??___ftadd+1
  3754  01D7  0842               	movf	___ftadd@f1+2,w
  3755  01D8  00C8               	movwf	??___ftadd+2
  3756  01D9  1003               	clrc
  3757  01DA  0D47               	rlf	??___ftadd+1,w
  3758  01DB  0D48               	rlf	??___ftadd+2,w
  3759  01DC  00C9               	movwf	??___ftadd+3
  3760  01DD  0849               	movf	??___ftadd+3,w
  3761  01DE  00CC               	movwf	___ftadd@exp1
  3762  01DF  0843               	movf	___ftadd@f2,w
  3763  01E0  00C6               	movwf	??___ftadd
  3764  01E1  0844               	movf	___ftadd@f2+1,w
  3765  01E2  00C7               	movwf	??___ftadd+1
  3766  01E3  0845               	movf	___ftadd@f2+2,w
  3767  01E4  00C8               	movwf	??___ftadd+2
  3768  01E5  1003               	clrc
  3769  01E6  0D47               	rlf	??___ftadd+1,w
  3770  01E7  0D48               	rlf	??___ftadd+2,w
  3771  01E8  00C9               	movwf	??___ftadd+3
  3772  01E9  0849               	movf	??___ftadd+3,w
  3773  01EA  00CB               	movwf	___ftadd@exp2
  3774  01EB  084C               	movf	___ftadd@exp1,w
  3775  01EC  1903               	btfsc	3,2
  3776  01ED  29FA               	goto	l1654
  3777  01EE  084B               	movf	___ftadd@exp2,w
  3778  01EF  024C               	subwf	___ftadd@exp1,w
  3779  01F0  1803               	skipnc
  3780  01F1  2A01               	goto	l1658
  3781  01F2  034C               	decf	___ftadd@exp1,w
  3782  01F3  3AFF               	xorlw	255
  3783  01F4  074B               	addwf	___ftadd@exp2,w
  3784  01F5  00C6               	movwf	??___ftadd
  3785  01F6  3019               	movlw	25
  3786  01F7  0246               	subwf	??___ftadd,w
  3787  01F8  1C03               	skipc
  3788  01F9  2A01               	goto	l1658
  3789  01FA                     l1654:	
  3790  01FA  0843               	movf	___ftadd@f2,w
  3791  01FB  00C0               	movwf	?___ftadd
  3792  01FC  0844               	movf	___ftadd@f2+1,w
  3793  01FD  00C1               	movwf	?___ftadd+1
  3794  01FE  0845               	movf	___ftadd@f2+2,w
  3795  01FF  00C2               	movwf	?___ftadd+2
  3796  0200  0008               	return
  3797  0201                     l1658:	
  3798  0201  084B               	movf	___ftadd@exp2,w
  3799  0202  1903               	btfsc	3,2
  3800  0203  0008               	return
  3801  0204  084C               	movf	___ftadd@exp1,w
  3802  0205  024B               	subwf	___ftadd@exp2,w
  3803  0206  1803               	skipnc
  3804  0207  2A10               	goto	l1664
  3805  0208  034B               	decf	___ftadd@exp2,w
  3806  0209  3AFF               	xorlw	255
  3807  020A  074C               	addwf	___ftadd@exp1,w
  3808  020B  00C6               	movwf	??___ftadd
  3809  020C  3019               	movlw	25
  3810  020D  0246               	subwf	??___ftadd,w
  3811  020E  1803               	btfsc	3,0
  3812  020F  0008               	return
  3813  0210                     l1664:	
  3814  0210  3006               	movlw	6
  3815  0211  00C6               	movwf	??___ftadd
  3816  0212  0846               	movf	??___ftadd,w
  3817  0213  00CA               	movwf	___ftadd@sign
  3818  0214  1BC2               	btfsc	___ftadd@f1+2,7
  3819  0215  17CA               	bsf	___ftadd@sign,7
  3820  0216  1BC5               	btfsc	___ftadd@f2+2,7
  3821  0217  174A               	bsf	___ftadd@sign,6
  3822  0218  17C1               	bsf	___ftadd@f1+1,7
  3823  0219  30FF               	movlw	255
  3824  021A  05C0               	andwf	___ftadd@f1,f
  3825  021B  30FF               	movlw	255
  3826  021C  05C1               	andwf	___ftadd@f1+1,f
  3827  021D  3000               	movlw	0
  3828  021E  05C2               	andwf	___ftadd@f1+2,f
  3829  021F  17C4               	bsf	___ftadd@f2+1,7
  3830  0220  30FF               	movlw	255
  3831  0221  05C3               	andwf	___ftadd@f2,f
  3832  0222  30FF               	movlw	255
  3833  0223  05C4               	andwf	___ftadd@f2+1,f
  3834  0224  3000               	movlw	0
  3835  0225  05C5               	andwf	___ftadd@f2+2,f
  3836  0226  084B               	movf	___ftadd@exp2,w
  3837  0227  024C               	subwf	___ftadd@exp1,w
  3838  0228  1803               	skipnc
  3839  0229  2A50               	goto	l1686
  3840  022A                     l1676:	
  3841  022A  3001               	movlw	1
  3842  022B                     u1635:	
  3843  022B  1003               	clrc
  3844  022C  0DC3               	rlf	___ftadd@f2,f
  3845  022D  0DC4               	rlf	___ftadd@f2+1,f
  3846  022E  0DC5               	rlf	___ftadd@f2+2,f
  3847  022F  3EFF               	addlw	-1
  3848  0230  1D03               	skipz
  3849  0231  2A2B               	goto	u1635
  3850  0232  3001               	movlw	1
  3851  0233  02CB               	subwf	___ftadd@exp2,f
  3852  0234  084B               	movf	___ftadd@exp2,w
  3853  0235  064C               	xorwf	___ftadd@exp1,w
  3854  0236  1903               	skipnz
  3855  0237  2A4B               	goto	l1684
  3856  0238  3001               	movlw	1
  3857  0239  02CA               	subwf	___ftadd@sign,f
  3858  023A  084A               	movf	___ftadd@sign,w
  3859  023B  3907               	andlw	7
  3860  023C  1903               	btfsc	3,2
  3861  023D  2A4B               	goto	l1684
  3862  023E  2A2A               	goto	l1676
  3863  023F                     l1682:	
  3864  023F  3001               	movlw	1
  3865  0240                     u1665:	
  3866  0240  1003               	clrc
  3867  0241  0CC2               	rrf	___ftadd@f1+2,f
  3868  0242  0CC1               	rrf	___ftadd@f1+1,f
  3869  0243  0CC0               	rrf	___ftadd@f1,f
  3870  0244  3EFF               	addlw	-1
  3871  0245  1D03               	skipz
  3872  0246  2A40               	goto	u1665
  3873  0247  3001               	movlw	1
  3874  0248  00C6               	movwf	??___ftadd
  3875  0249  0846               	movf	??___ftadd,w
  3876  024A  07CC               	addwf	___ftadd@exp1,f
  3877  024B                     l1684:	
  3878  024B  084C               	movf	___ftadd@exp1,w
  3879  024C  064B               	xorwf	___ftadd@exp2,w
  3880  024D  1903               	btfsc	3,2
  3881  024E  2A79               	goto	l428
  3882  024F  2A3F               	goto	l1682
  3883  0250                     l1686:	
  3884  0250  084C               	movf	___ftadd@exp1,w
  3885  0251  024B               	subwf	___ftadd@exp2,w
  3886  0252  1803               	skipnc
  3887  0253  2A79               	goto	l428
  3888  0254                     l1688:	
  3889  0254  3001               	movlw	1
  3890  0255                     u1695:	
  3891  0255  1003               	clrc
  3892  0256  0DC0               	rlf	___ftadd@f1,f
  3893  0257  0DC1               	rlf	___ftadd@f1+1,f
  3894  0258  0DC2               	rlf	___ftadd@f1+2,f
  3895  0259  3EFF               	addlw	-1
  3896  025A  1D03               	skipz
  3897  025B  2A55               	goto	u1695
  3898  025C  3001               	movlw	1
  3899  025D  02CC               	subwf	___ftadd@exp1,f
  3900  025E  084B               	movf	___ftadd@exp2,w
  3901  025F  064C               	xorwf	___ftadd@exp1,w
  3902  0260  1903               	skipnz
  3903  0261  2A75               	goto	l1696
  3904  0262  3001               	movlw	1
  3905  0263  02CA               	subwf	___ftadd@sign,f
  3906  0264  084A               	movf	___ftadd@sign,w
  3907  0265  3907               	andlw	7
  3908  0266  1903               	btfsc	3,2
  3909  0267  2A75               	goto	l1696
  3910  0268  2A54               	goto	l1688
  3911  0269                     l1694:	
  3912  0269  3001               	movlw	1
  3913  026A                     u1725:	
  3914  026A  1003               	clrc
  3915  026B  0CC5               	rrf	___ftadd@f2+2,f
  3916  026C  0CC4               	rrf	___ftadd@f2+1,f
  3917  026D  0CC3               	rrf	___ftadd@f2,f
  3918  026E  3EFF               	addlw	-1
  3919  026F  1D03               	skipz
  3920  0270  2A6A               	goto	u1725
  3921  0271  3001               	movlw	1
  3922  0272  00C6               	movwf	??___ftadd
  3923  0273  0846               	movf	??___ftadd,w
  3924  0274  07CB               	addwf	___ftadd@exp2,f
  3925  0275                     l1696:	
  3926  0275  084C               	movf	___ftadd@exp1,w
  3927  0276  064B               	xorwf	___ftadd@exp2,w
  3928  0277  1D03               	skipz
  3929  0278  2A69               	goto	l1694
  3930  0279                     l428:	
  3931  0279  1FCA               	btfss	___ftadd@sign,7
  3932  027A  2A8B               	goto	l1700
  3933  027B  30FF               	movlw	255
  3934  027C  06C0               	xorwf	___ftadd@f1,f
  3935  027D  30FF               	movlw	255
  3936  027E  06C1               	xorwf	___ftadd@f1+1,f
  3937  027F  30FF               	movlw	255
  3938  0280  06C2               	xorwf	___ftadd@f1+2,f
  3939  0281  3001               	movlw	1
  3940  0282  07C0               	addwf	___ftadd@f1,f
  3941  0283  3000               	movlw	0
  3942  0284  1803               	skipnc
  3943  0285  3001               	movlw	1
  3944  0286  07C1               	addwf	___ftadd@f1+1,f
  3945  0287  3000               	movlw	0
  3946  0288  1803               	skipnc
  3947  0289  3001               	movlw	1
  3948  028A  07C2               	addwf	___ftadd@f1+2,f
  3949  028B                     l1700:	
  3950  028B  1F4A               	btfss	___ftadd@sign,6
  3951  028C  2A9D               	goto	l1704
  3952  028D  30FF               	movlw	255
  3953  028E  06C3               	xorwf	___ftadd@f2,f
  3954  028F  30FF               	movlw	255
  3955  0290  06C4               	xorwf	___ftadd@f2+1,f
  3956  0291  30FF               	movlw	255
  3957  0292  06C5               	xorwf	___ftadd@f2+2,f
  3958  0293  3001               	movlw	1
  3959  0294  07C3               	addwf	___ftadd@f2,f
  3960  0295  3000               	movlw	0
  3961  0296  1803               	skipnc
  3962  0297  3001               	movlw	1
  3963  0298  07C4               	addwf	___ftadd@f2+1,f
  3964  0299  3000               	movlw	0
  3965  029A  1803               	skipnc
  3966  029B  3001               	movlw	1
  3967  029C  07C5               	addwf	___ftadd@f2+2,f
  3968  029D                     l1704:	
  3969  029D  01CA               	clrf	___ftadd@sign
  3970  029E  0840               	movf	___ftadd@f1,w
  3971  029F  07C3               	addwf	___ftadd@f2,f
  3972  02A0  0841               	movf	___ftadd@f1+1,w
  3973  02A1  1103               	clrz
  3974  02A2  1803               	skipnc
  3975  02A3  0A41               	incf	___ftadd@f1+1,w
  3976  02A4  1D03               	btfss	3,2
  3977  02A5  07C4               	addwf	___ftadd@f2+1,f
  3978  02A6  0842               	movf	___ftadd@f1+2,w
  3979  02A7  1103               	clrz
  3980  02A8  1803               	skipnc
  3981  02A9  0A42               	incf	___ftadd@f1+2,w
  3982  02AA  1D03               	btfss	3,2
  3983  02AB  07C5               	addwf	___ftadd@f2+2,f
  3984  02AC  1FC5               	btfss	___ftadd@f2+2,7
  3985  02AD  2AC0               	goto	l1714
  3986  02AE  30FF               	movlw	255
  3987  02AF  06C3               	xorwf	___ftadd@f2,f
  3988  02B0  30FF               	movlw	255
  3989  02B1  06C4               	xorwf	___ftadd@f2+1,f
  3990  02B2  30FF               	movlw	255
  3991  02B3  06C5               	xorwf	___ftadd@f2+2,f
  3992  02B4  3001               	movlw	1
  3993  02B5  07C3               	addwf	___ftadd@f2,f
  3994  02B6  3000               	movlw	0
  3995  02B7  1803               	skipnc
  3996  02B8  3001               	movlw	1
  3997  02B9  07C4               	addwf	___ftadd@f2+1,f
  3998  02BA  3000               	movlw	0
  3999  02BB  1803               	skipnc
  4000  02BC  3001               	movlw	1
  4001  02BD  07C5               	addwf	___ftadd@f2+2,f
  4002  02BE  01CA               	clrf	___ftadd@sign
  4003  02BF  0ACA               	incf	___ftadd@sign,f
  4004  02C0                     l1714:	
  4005  02C0  0843               	movf	___ftadd@f2,w
  4006  02C1  00F0               	movwf	___ftpack@arg
  4007  02C2  0844               	movf	___ftadd@f2+1,w
  4008  02C3  00F1               	movwf	___ftpack@arg+1
  4009  02C4  0845               	movf	___ftadd@f2+2,w
  4010  02C5  00F2               	movwf	___ftpack@arg+2
  4011  02C6  084C               	movf	___ftadd@exp1,w
  4012  02C7  00C6               	movwf	??___ftadd
  4013  02C8  0846               	movf	??___ftadd,w
  4014  02C9  00F3               	movwf	___ftpack@exp
  4015  02CA  084A               	movf	___ftadd@sign,w
  4016  02CB  00C7               	movwf	??___ftadd+1
  4017  02CC  0847               	movf	??___ftadd+1,w
  4018  02CD  00F4               	movwf	___ftpack@sign
  4019  02CE  120A  158A  2324   	fcall	___ftpack
  4020  02D1  0870               	movf	?___ftpack,w
  4021  02D2  1283               	bcf	3,5	;RP0=0, select bank0
  4022  02D3  1303               	bcf	3,6	;RP1=0, select bank0
  4023  02D4  00C0               	movwf	?___ftadd
  4024  02D5  0871               	movf	?___ftpack+1,w
  4025  02D6  00C1               	movwf	?___ftadd+1
  4026  02D7  0872               	movf	?___ftpack+2,w
  4027  02D8  00C2               	movwf	?___ftadd+2
  4028  02D9  0008               	return
  4029  02DA                     __end_of___ftadd:	
  4030                           
  4031                           	psect	text15
  4032  0E78                     __ptext15:	
  4033 ;; *************** function ___ftdiv *****************
  4034 ;; Defined at:
  4035 ;;		line 49 in file "C:\Program Files (x86)\Microchip\xc8\v1.33\sources\pic\ftdiv.c"
  4036 ;; Parameters:    Size  Location     Type
  4037 ;;  f2              3    0[BANK0 ] float 
  4038 ;;  f1              3    3[BANK0 ] float 
  4039 ;; Auto vars:     Size  Location     Type
  4040 ;;  f3              3   11[BANK0 ] float 
  4041 ;;  sign            1   15[BANK0 ] unsigned char 
  4042 ;;  exp             1   14[BANK0 ] unsigned char 
  4043 ;;  cntr            1   10[BANK0 ] unsigned char 
  4044 ;; Return value:  Size  Location     Type
  4045 ;;                  3    0[BANK0 ] float 
  4046 ;; Registers used:
  4047 ;;		wreg, status,2, status,0, pclath, cstack
  4048 ;; Tracked objects:
  4049 ;;		On entry : 0/0
  4050 ;;		On exit  : 0/0
  4051 ;;		Unchanged: 0/0
  4052 ;; Data sizes:     COMMON   BANK0   BANK1   BANK3   BANK2
  4053 ;;      Params:         0       6       0       0       0
  4054 ;;      Locals:         0       6       0       0       0
  4055 ;;      Temps:          0       4       0       0       0
  4056 ;;      Totals:         0      16       0       0       0
  4057 ;;Total ram usage:       16 bytes
  4058 ;; Hardware stack levels used:    1
  4059 ;; Hardware stack levels required when called:    1
  4060 ;; This function calls:
  4061 ;;		___ftpack
  4062 ;; This function is called by:
  4063 ;;		_main
  4064 ;;		_exp
  4065 ;; This function uses a non-reentrant model
  4066 ;;
  4067                           
  4068                           
  4069                           ;psect for function ___ftdiv
  4070  0E78                     ___ftdiv:	
  4071                           
  4072                           ;incstack = 0
  4073                           ; Regs used in ___ftdiv: [wreg+status,2+status,0+pclath+cstack]
  4074  0E78  1283               	bcf	3,5	;RP0=0, select bank0
  4075  0E79  1303               	bcf	3,6	;RP1=0, select bank0
  4076  0E7A  0823               	movf	___ftdiv@f1,w
  4077  0E7B  00A6               	movwf	??___ftdiv
  4078  0E7C  0824               	movf	___ftdiv@f1+1,w
  4079  0E7D  00A7               	movwf	??___ftdiv+1
  4080  0E7E  0825               	movf	___ftdiv@f1+2,w
  4081  0E7F  00A8               	movwf	??___ftdiv+2
  4082  0E80  1003               	clrc
  4083  0E81  0D27               	rlf	??___ftdiv+1,w
  4084  0E82  0D28               	rlf	??___ftdiv+2,w
  4085  0E83  00A9               	movwf	??___ftdiv+3
  4086  0E84  0829               	movf	??___ftdiv+3,w
  4087  0E85  00AE               	movwf	___ftdiv@exp
  4088  0E86  08AE               	movf	___ftdiv@exp,f
  4089  0E87  1D03               	skipz
  4090  0E88  2E90               	goto	l1884
  4091  0E89  3000               	movlw	0
  4092  0E8A  00A0               	movwf	?___ftdiv
  4093  0E8B  3000               	movlw	0
  4094  0E8C  00A1               	movwf	?___ftdiv+1
  4095  0E8D  3000               	movlw	0
  4096  0E8E  00A2               	movwf	?___ftdiv+2
  4097  0E8F  0008               	return
  4098  0E90                     l1884:	
  4099  0E90  0820               	movf	___ftdiv@f2,w
  4100  0E91  00A6               	movwf	??___ftdiv
  4101  0E92  0821               	movf	___ftdiv@f2+1,w
  4102  0E93  00A7               	movwf	??___ftdiv+1
  4103  0E94  0822               	movf	___ftdiv@f2+2,w
  4104  0E95  00A8               	movwf	??___ftdiv+2
  4105  0E96  1003               	clrc
  4106  0E97  0D27               	rlf	??___ftdiv+1,w
  4107  0E98  0D28               	rlf	??___ftdiv+2,w
  4108  0E99  00A9               	movwf	??___ftdiv+3
  4109  0E9A  0829               	movf	??___ftdiv+3,w
  4110  0E9B  00AF               	movwf	___ftdiv@sign
  4111  0E9C  08AF               	movf	___ftdiv@sign,f
  4112  0E9D  1D03               	skipz
  4113  0E9E  2EA6               	goto	l1890
  4114  0E9F  3000               	movlw	0
  4115  0EA0  00A0               	movwf	?___ftdiv
  4116  0EA1  3000               	movlw	0
  4117  0EA2  00A1               	movwf	?___ftdiv+1
  4118  0EA3  3000               	movlw	0
  4119  0EA4  00A2               	movwf	?___ftdiv+2
  4120  0EA5  0008               	return
  4121  0EA6                     l1890:	
  4122  0EA6  3000               	movlw	0
  4123  0EA7  00AB               	movwf	___ftdiv@f3
  4124  0EA8  3000               	movlw	0
  4125  0EA9  00AC               	movwf	___ftdiv@f3+1
  4126  0EAA  3000               	movlw	0
  4127  0EAB  00AD               	movwf	___ftdiv@f3+2
  4128  0EAC  3089               	movlw	137
  4129  0EAD  072F               	addwf	___ftdiv@sign,w
  4130  0EAE  00A6               	movwf	??___ftdiv
  4131  0EAF  0826               	movf	??___ftdiv,w
  4132  0EB0  02AE               	subwf	___ftdiv@exp,f
  4133  0EB1  0823               	movf	___ftdiv@f1,w
  4134  0EB2  00A6               	movwf	??___ftdiv
  4135  0EB3  0824               	movf	___ftdiv@f1+1,w
  4136  0EB4  00A7               	movwf	??___ftdiv+1
  4137  0EB5  0825               	movf	___ftdiv@f1+2,w
  4138  0EB6  00A8               	movwf	??___ftdiv+2
  4139  0EB7  3010               	movlw	16
  4140  0EB8                     u2135:	
  4141  0EB8  1003               	clrc
  4142  0EB9  0CA8               	rrf	??___ftdiv+2,f
  4143  0EBA  0CA7               	rrf	??___ftdiv+1,f
  4144  0EBB  0CA6               	rrf	??___ftdiv,f
  4145  0EBC  3EFF               	addlw	-1
  4146  0EBD  1D03               	skipz
  4147  0EBE  2EB8               	goto	u2135
  4148  0EBF  0826               	movf	??___ftdiv,w
  4149  0EC0  00A9               	movwf	??___ftdiv+3
  4150  0EC1  0829               	movf	??___ftdiv+3,w
  4151  0EC2  00AF               	movwf	___ftdiv@sign
  4152  0EC3  0820               	movf	___ftdiv@f2,w
  4153  0EC4  00A6               	movwf	??___ftdiv
  4154  0EC5  0821               	movf	___ftdiv@f2+1,w
  4155  0EC6  00A7               	movwf	??___ftdiv+1
  4156  0EC7  0822               	movf	___ftdiv@f2+2,w
  4157  0EC8  00A8               	movwf	??___ftdiv+2
  4158  0EC9  3010               	movlw	16
  4159  0ECA                     u2145:	
  4160  0ECA  1003               	clrc
  4161  0ECB  0CA8               	rrf	??___ftdiv+2,f
  4162  0ECC  0CA7               	rrf	??___ftdiv+1,f
  4163  0ECD  0CA6               	rrf	??___ftdiv,f
  4164  0ECE  3EFF               	addlw	-1
  4165  0ECF  1D03               	skipz
  4166  0ED0  2ECA               	goto	u2145
  4167  0ED1  0826               	movf	??___ftdiv,w
  4168  0ED2  00A9               	movwf	??___ftdiv+3
  4169  0ED3  0829               	movf	??___ftdiv+3,w
  4170  0ED4  06AF               	xorwf	___ftdiv@sign,f
  4171  0ED5  3080               	movlw	128
  4172  0ED6  00A6               	movwf	??___ftdiv
  4173  0ED7  0826               	movf	??___ftdiv,w
  4174  0ED8  05AF               	andwf	___ftdiv@sign,f
  4175  0ED9  17A4               	bsf	___ftdiv@f1+1,7
  4176  0EDA  30FF               	movlw	255
  4177  0EDB  05A3               	andwf	___ftdiv@f1,f
  4178  0EDC  30FF               	movlw	255
  4179  0EDD  05A4               	andwf	___ftdiv@f1+1,f
  4180  0EDE  3000               	movlw	0
  4181  0EDF  05A5               	andwf	___ftdiv@f1+2,f
  4182  0EE0  17A1               	bsf	___ftdiv@f2+1,7
  4183  0EE1  30FF               	movlw	255
  4184  0EE2  05A0               	andwf	___ftdiv@f2,f
  4185  0EE3  30FF               	movlw	255
  4186  0EE4  05A1               	andwf	___ftdiv@f2+1,f
  4187  0EE5  3000               	movlw	0
  4188  0EE6  05A2               	andwf	___ftdiv@f2+2,f
  4189  0EE7  3018               	movlw	24
  4190  0EE8  00A6               	movwf	??___ftdiv
  4191  0EE9  0826               	movf	??___ftdiv,w
  4192  0EEA  00AA               	movwf	___ftdiv@cntr
  4193  0EEB                     l1904:	
  4194  0EEB  3001               	movlw	1
  4195  0EEC                     u2155:	
  4196  0EEC  1003               	clrc
  4197  0EED  0DAB               	rlf	___ftdiv@f3,f
  4198  0EEE  0DAC               	rlf	___ftdiv@f3+1,f
  4199  0EEF  0DAD               	rlf	___ftdiv@f3+2,f
  4200  0EF0  3EFF               	addlw	-1
  4201  0EF1  1D03               	skipz
  4202  0EF2  2EEC               	goto	u2155
  4203  0EF3  0822               	movf	___ftdiv@f2+2,w
  4204  0EF4  0225               	subwf	___ftdiv@f1+2,w
  4205  0EF5  1D03               	skipz
  4206  0EF6  2EFD               	goto	u2165
  4207  0EF7  0821               	movf	___ftdiv@f2+1,w
  4208  0EF8  0224               	subwf	___ftdiv@f1+1,w
  4209  0EF9  1D03               	skipz
  4210  0EFA  2EFD               	goto	u2165
  4211  0EFB  0820               	movf	___ftdiv@f2,w
  4212  0EFC  0223               	subwf	___ftdiv@f1,w
  4213  0EFD                     u2165:	
  4214  0EFD  1C03               	skipc
  4215  0EFE  2F0A               	goto	l1912
  4216  0EFF  0820               	movf	___ftdiv@f2,w
  4217  0F00  02A3               	subwf	___ftdiv@f1,f
  4218  0F01  0821               	movf	___ftdiv@f2+1,w
  4219  0F02  1C03               	skipc
  4220  0F03  0F21               	incfsz	___ftdiv@f2+1,w
  4221  0F04  02A4               	subwf	___ftdiv@f1+1,f
  4222  0F05  0822               	movf	___ftdiv@f2+2,w
  4223  0F06  1C03               	skipc
  4224  0F07  0A22               	incf	___ftdiv@f2+2,w
  4225  0F08  02A5               	subwf	___ftdiv@f1+2,f
  4226  0F09  142B               	bsf	___ftdiv@f3,0
  4227  0F0A                     l1912:	
  4228  0F0A  3001               	movlw	1
  4229  0F0B                     u2175:	
  4230  0F0B  1003               	clrc
  4231  0F0C  0DA3               	rlf	___ftdiv@f1,f
  4232  0F0D  0DA4               	rlf	___ftdiv@f1+1,f
  4233  0F0E  0DA5               	rlf	___ftdiv@f1+2,f
  4234  0F0F  3EFF               	addlw	-1
  4235  0F10  1D03               	skipz
  4236  0F11  2F0B               	goto	u2175
  4237  0F12  3001               	movlw	1
  4238  0F13  02AA               	subwf	___ftdiv@cntr,f
  4239  0F14  1D03               	btfss	3,2
  4240  0F15  2EEB               	goto	l1904
  4241  0F16  082B               	movf	___ftdiv@f3,w
  4242  0F17  00F0               	movwf	___ftpack@arg
  4243  0F18  082C               	movf	___ftdiv@f3+1,w
  4244  0F19  00F1               	movwf	___ftpack@arg+1
  4245  0F1A  082D               	movf	___ftdiv@f3+2,w
  4246  0F1B  00F2               	movwf	___ftpack@arg+2
  4247  0F1C  082E               	movf	___ftdiv@exp,w
  4248  0F1D  00A6               	movwf	??___ftdiv
  4249  0F1E  0826               	movf	??___ftdiv,w
  4250  0F1F  00F3               	movwf	___ftpack@exp
  4251  0F20  082F               	movf	___ftdiv@sign,w
  4252  0F21  00A7               	movwf	??___ftdiv+1
  4253  0F22  0827               	movf	??___ftdiv+1,w
  4254  0F23  00F4               	movwf	___ftpack@sign
  4255  0F24  120A  158A  2324   	fcall	___ftpack
  4256  0F27  0870               	movf	?___ftpack,w
  4257  0F28  1283               	bcf	3,5	;RP0=0, select bank0
  4258  0F29  1303               	bcf	3,6	;RP1=0, select bank0
  4259  0F2A  00A0               	movwf	?___ftdiv
  4260  0F2B  0871               	movf	?___ftpack+1,w
  4261  0F2C  00A1               	movwf	?___ftdiv+1
  4262  0F2D  0872               	movf	?___ftpack+2,w
  4263  0F2E  00A2               	movwf	?___ftdiv+2
  4264  0F2F  0008               	return
  4265  0F30                     __end_of___ftdiv:	
  4266                           
  4267                           	psect	text16
  4268  0004                     __ptext16:	
  4269 ;; *************** function ___awtoft *****************
  4270 ;; Defined at:
  4271 ;;		line 32 in file "C:\Program Files (x86)\Microchip\xc8\v1.33\sources\common\awtoft.c"
  4272 ;; Parameters:    Size  Location     Type
  4273 ;;  c               2    8[COMMON] int 
  4274 ;; Auto vars:     Size  Location     Type
  4275 ;;  sign            1   13[COMMON] unsigned char 
  4276 ;; Return value:  Size  Location     Type
  4277 ;;                  3    8[COMMON] float 
  4278 ;; Registers used:
  4279 ;;		wreg, status,2, status,0, pclath, cstack
  4280 ;; Tracked objects:
  4281 ;;		On entry : 0/0
  4282 ;;		On exit  : 0/0
  4283 ;;		Unchanged: 0/0
  4284 ;; Data sizes:     COMMON   BANK0   BANK1   BANK3   BANK2
  4285 ;;      Params:         3       0       0       0       0
  4286 ;;      Locals:         1       0       0       0       0
  4287 ;;      Temps:          2       0       0       0       0
  4288 ;;      Totals:         6       0       0       0       0
  4289 ;;Total ram usage:        6 bytes
  4290 ;; Hardware stack levels used:    1
  4291 ;; Hardware stack levels required when called:    1
  4292 ;; This function calls:
  4293 ;;		___ftpack
  4294 ;; This function is called by:
  4295 ;;		_main
  4296 ;;		_exp
  4297 ;;		_log
  4298 ;; This function uses a non-reentrant model
  4299 ;;
  4300                           
  4301                           
  4302                           ;psect for function ___awtoft
  4303  0004                     ___awtoft:	
  4304                           
  4305                           ;incstack = 0
  4306                           ; Regs used in ___awtoft: [wreg+status,2+status,0+pclath+cstack]
  4307  0004  01FD               	clrf	___awtoft@sign
  4308  0005  1FF9               	btfss	___awtoft@c+1,7
  4309  0006  280E               	goto	l1874
  4310  0007  09F8               	comf	___awtoft@c,f
  4311  0008  09F9               	comf	___awtoft@c+1,f
  4312  0009  0AF8               	incf	___awtoft@c,f
  4313  000A  1903               	skipnz
  4314  000B  0AF9               	incf	___awtoft@c+1,f
  4315  000C  01FD               	clrf	___awtoft@sign
  4316  000D  0AFD               	incf	___awtoft@sign,f
  4317  000E                     l1874:	
  4318  000E  0878               	movf	___awtoft@c,w
  4319  000F  00F0               	movwf	___ftpack@arg
  4320  0010  0879               	movf	___awtoft@c+1,w
  4321  0011  00F1               	movwf	___ftpack@arg+1
  4322  0012  01F2               	clrf	___ftpack@arg+2
  4323  0013  308E               	movlw	142
  4324  0014  00FB               	movwf	??___awtoft
  4325  0015  087B               	movf	??___awtoft,w
  4326  0016  00F3               	movwf	___ftpack@exp
  4327  0017  087D               	movf	___awtoft@sign,w
  4328  0018  00FC               	movwf	??___awtoft+1
  4329  0019  087C               	movf	??___awtoft+1,w
  4330  001A  00F4               	movwf	___ftpack@sign
  4331  001B  120A  158A  2324   	fcall	___ftpack
  4332  001E  0870               	movf	?___ftpack,w
  4333  001F  00F8               	movwf	?___awtoft
  4334  0020  0871               	movf	?___ftpack+1,w
  4335  0021  00F9               	movwf	?___awtoft+1
  4336  0022  0872               	movf	?___ftpack+2,w
  4337  0023  00FA               	movwf	?___awtoft+2
  4338  0024  0008               	return
  4339  0025                     __end_of___awtoft:	
  4340                           
  4341                           	psect	text17
  4342  08F3                     __ptext17:	
  4343 ;; *************** function ___lltoft *****************
  4344 ;; Defined at:
  4345 ;;		line 35 in file "C:\Program Files (x86)\Microchip\xc8\v1.33\sources\common\lltoft.c"
  4346 ;; Parameters:    Size  Location     Type
  4347 ;;  c               4    8[COMMON] unsigned long 
  4348 ;; Auto vars:     Size  Location     Type
  4349 ;;  exp             1   13[COMMON] unsigned char 
  4350 ;; Return value:  Size  Location     Type
  4351 ;;                  3    8[COMMON] float 
  4352 ;; Registers used:
  4353 ;;		wreg, status,2, status,0, pclath, cstack
  4354 ;; Tracked objects:
  4355 ;;		On entry : 0/0
  4356 ;;		On exit  : 0/0
  4357 ;;		Unchanged: 0/0
  4358 ;; Data sizes:     COMMON   BANK0   BANK1   BANK3   BANK2
  4359 ;;      Params:         4       0       0       0       0
  4360 ;;      Locals:         1       0       0       0       0
  4361 ;;      Temps:          1       0       0       0       0
  4362 ;;      Totals:         6       0       0       0       0
  4363 ;;Total ram usage:        6 bytes
  4364 ;; Hardware stack levels used:    1
  4365 ;; Hardware stack levels required when called:    1
  4366 ;; This function calls:
  4367 ;;		___ftpack
  4368 ;; This function is called by:
  4369 ;;		_pow
  4370 ;; This function uses a non-reentrant model
  4371 ;;
  4372                           
  4373                           
  4374                           ;psect for function ___lltoft
  4375  08F3                     ___lltoft:	
  4376                           
  4377                           ;incstack = 0
  4378                           ; Regs used in ___lltoft: [wreg+status,2+status,0+pclath+cstack]
  4379  08F3  308E               	movlw	142
  4380  08F4  00FC               	movwf	??___lltoft
  4381  08F5  087C               	movf	??___lltoft,w
  4382  08F6  00FD               	movwf	___lltoft@exp
  4383  08F7                     l2148:	
  4384  08F7  30FF               	movlw	255
  4385  08F8  057B               	andwf	___lltoft@c+3,w
  4386  08F9  1903               	btfsc	3,2
  4387  08FA  2909               	goto	l2150
  4388  08FB  3001               	movlw	1
  4389  08FC                     u2515:	
  4390  08FC  1003               	clrc
  4391  08FD  0CFB               	rrf	___lltoft@c+3,f
  4392  08FE  0CFA               	rrf	___lltoft@c+2,f
  4393  08FF  0CF9               	rrf	___lltoft@c+1,f
  4394  0900  0CF8               	rrf	___lltoft@c,f
  4395  0901  3EFF               	addlw	-1
  4396  0902  1D03               	skipz
  4397  0903  28FC               	goto	u2515
  4398  0904  3001               	movlw	1
  4399  0905  00FC               	movwf	??___lltoft
  4400  0906  087C               	movf	??___lltoft,w
  4401  0907  07FD               	addwf	___lltoft@exp,f
  4402  0908  28F7               	goto	l2148
  4403  0909                     l2150:	
  4404  0909  0878               	movf	___lltoft@c,w
  4405  090A  00F0               	movwf	___ftpack@arg
  4406  090B  0879               	movf	___lltoft@c+1,w
  4407  090C  00F1               	movwf	___ftpack@arg+1
  4408  090D  087A               	movf	___lltoft@c+2,w
  4409  090E  00F2               	movwf	___ftpack@arg+2
  4410  090F  087D               	movf	___lltoft@exp,w
  4411  0910  00FC               	movwf	??___lltoft
  4412  0911  087C               	movf	??___lltoft,w
  4413  0912  00F3               	movwf	___ftpack@exp
  4414  0913  01F4               	clrf	___ftpack@sign
  4415  0914  120A  158A  2324   	fcall	___ftpack
  4416  0917  0870               	movf	?___ftpack,w
  4417  0918  00F8               	movwf	?___lltoft
  4418  0919  0871               	movf	?___ftpack+1,w
  4419  091A  00F9               	movwf	?___lltoft+1
  4420  091B  0872               	movf	?___ftpack+2,w
  4421  091C  00FA               	movwf	?___lltoft+2
  4422  091D  0008               	return
  4423  091E                     __end_of___lltoft:	
  4424                           
  4425                           	psect	text18
  4426  17E0                     __ptext18:	
  4427 ;; *************** function _init_I2C_Master *****************
  4428 ;; Defined at:
  4429 ;;		line 212 in file "Z:\CPE3201_SANIEL\PracticalActivities\PA7\LE7-3.c"
  4430 ;; Parameters:    Size  Location     Type
  4431 ;;		None
  4432 ;; Auto vars:     Size  Location     Type
  4433 ;;		None
  4434 ;; Return value:  Size  Location     Type
  4435 ;;		None               void
  4436 ;; Registers used:
  4437 ;;		wreg, status,2
  4438 ;; Tracked objects:
  4439 ;;		On entry : 0/0
  4440 ;;		On exit  : 0/0
  4441 ;;		Unchanged: 0/0
  4442 ;; Data sizes:     COMMON   BANK0   BANK1   BANK3   BANK2
  4443 ;;      Params:         0       0       0       0       0
  4444 ;;      Locals:         0       0       0       0       0
  4445 ;;      Temps:          0       0       0       0       0
  4446 ;;      Totals:         0       0       0       0       0
  4447 ;;Total ram usage:        0 bytes
  4448 ;; Hardware stack levels used:    1
  4449 ;; This function calls:
  4450 ;;		Nothing
  4451 ;; This function is called by:
  4452 ;;		_main
  4453 ;; This function uses a non-reentrant model
  4454 ;;
  4455                           
  4456                           
  4457                           ;psect for function _init_I2C_Master
  4458  17E0                     _init_I2C_Master:	
  4459                           
  4460                           ;LE7-3.c: 213: TRISC3 = 1;
  4461                           
  4462                           ;incstack = 0
  4463                           ; Regs used in _init_I2C_Master: [wreg+status,2]
  4464  17E0  1683               	bsf	3,5	;RP0=1, select bank1
  4465  17E1  1303               	bcf	3,6	;RP1=0, select bank1
  4466  17E2  1587               	bsf	7,3	;volatile
  4467                           
  4468                           ;LE7-3.c: 214: TRISC4 = 1;
  4469  17E3  1607               	bsf	7,4	;volatile
  4470                           
  4471                           ;LE7-3.c: 215: SSPCON = 0x28;
  4472  17E4  3028               	movlw	40
  4473  17E5  1283               	bcf	3,5	;RP0=0, select bank0
  4474  17E6  1303               	bcf	3,6	;RP1=0, select bank0
  4475  17E7  0094               	movwf	20	;volatile
  4476                           
  4477                           ;LE7-3.c: 216: SSPCON2 = 0x00;
  4478  17E8  1683               	bsf	3,5	;RP0=1, select bank1
  4479  17E9  1303               	bcf	3,6	;RP1=0, select bank1
  4480  17EA  0191               	clrf	17	;volatile
  4481                           
  4482                           ;LE7-3.c: 219: SSPSTAT = 0x00;
  4483  17EB  0194               	clrf	20	;volatile
  4484                           
  4485                           ;LE7-3.c: 220: SSPADD = 0x09;
  4486  17EC  3009               	movlw	9
  4487  17ED  0093               	movwf	19	;volatile
  4488  17EE  0008               	return
  4489  17EF                     __end_of_init_I2C_Master:	
  4490                           
  4491                           	psect	text19
  4492  0DC5                     __ptext19:	
  4493 ;; *************** function _initLCD *****************
  4494 ;; Defined at:
  4495 ;;		line 133 in file "Z:\CPE3201_SANIEL\PracticalActivities\PA7\LE7-3.c"
  4496 ;; Parameters:    Size  Location     Type
  4497 ;;		None
  4498 ;; Auto vars:     Size  Location     Type
  4499 ;;		None
  4500 ;; Return value:  Size  Location     Type
  4501 ;;		None               void
  4502 ;; Registers used:
  4503 ;;		wreg, status,2, status,0, btemp+1, pclath, cstack
  4504 ;; Tracked objects:
  4505 ;;		On entry : 0/0
  4506 ;;		On exit  : 0/0
  4507 ;;		Unchanged: 0/0
  4508 ;; Data sizes:     COMMON   BANK0   BANK1   BANK3   BANK2
  4509 ;;      Params:         0       0       0       0       0
  4510 ;;      Locals:         0       0       0       0       0
  4511 ;;      Temps:          0       0       0       0       0
  4512 ;;      Totals:         0       0       0       0       0
  4513 ;;Total ram usage:        0 bytes
  4514 ;; Hardware stack levels used:    1
  4515 ;; Hardware stack levels required when called:    2
  4516 ;; This function calls:
  4517 ;;		_dataCtrl
  4518 ;;		_delay_ms
  4519 ;;		_instCtrl
  4520 ;; This function is called by:
  4521 ;;		_main
  4522 ;; This function uses a non-reentrant model
  4523 ;;
  4524                           
  4525                           
  4526                           ;psect for function _initLCD
  4527  0DC5                     _initLCD:	
  4528                           
  4529                           ;LE7-3.c: 134: delay_ms(20);
  4530                           
  4531                           ;incstack = 0
  4532                           ; Regs used in _initLCD: [wreg+status,2+status,0+btemp+1+pclath+cstack]
  4533  0DC5  3014               	movlw	20
  4534  0DC6  00F0               	movwf	delay_ms@cnt
  4535  0DC7  3000               	movlw	0
  4536  0DC8  00F1               	movwf	delay_ms@cnt+1
  4537  0DC9  120A  158A  207D  120A  158A  	fcall	_delay_ms
  4538                           
  4539                           ;LE7-3.c: 135: instCtrl(0x38);
  4540  0DCE  3038               	movlw	56
  4541  0DCF  120A  158A  2096  120A  158A  	fcall	_instCtrl
  4542                           
  4543                           ;LE7-3.c: 136: instCtrl(0x01);
  4544  0DD4  3001               	movlw	1
  4545  0DD5  120A  158A  2096  120A  158A  	fcall	_instCtrl
  4546                           
  4547                           ;LE7-3.c: 137: delay_ms(5);
  4548  0DDA  3005               	movlw	5
  4549  0DDB  00F0               	movwf	delay_ms@cnt
  4550  0DDC  3000               	movlw	0
  4551  0DDD  00F1               	movwf	delay_ms@cnt+1
  4552  0DDE  120A  158A  207D  120A  158A  	fcall	_delay_ms
  4553                           
  4554                           ;LE7-3.c: 138: instCtrl(0x06);
  4555  0DE3  3006               	movlw	6
  4556  0DE4  120A  158A  2096  120A  158A  	fcall	_instCtrl
  4557                           
  4558                           ;LE7-3.c: 139: instCtrl(0x0C);
  4559  0DE9  300C               	movlw	12
  4560  0DEA  120A  158A  2096  120A  158A  	fcall	_instCtrl
  4561                           
  4562                           ;LE7-3.c: 141: instCtrl(0x80);
  4563  0DEF  3080               	movlw	128
  4564  0DF0  120A  158A  2096  120A  158A  	fcall	_instCtrl
  4565                           
  4566                           ;LE7-3.c: 142: dataCtrl('H');
  4567  0DF5  3048               	movlw	72
  4568  0DF6  120A  158A  2057  120A  158A  	fcall	_dataCtrl
  4569                           
  4570                           ;LE7-3.c: 143: dataCtrl('u');
  4571  0DFB  3075               	movlw	117
  4572  0DFC  120A  158A  2057  120A  158A  	fcall	_dataCtrl
  4573                           
  4574                           ;LE7-3.c: 144: dataCtrl('m');
  4575  0E01  306D               	movlw	109
  4576  0E02  120A  158A  2057  120A  158A  	fcall	_dataCtrl
  4577                           
  4578                           ;LE7-3.c: 145: dataCtrl('i');
  4579  0E07  3069               	movlw	105
  4580  0E08  120A  158A  2057  120A  158A  	fcall	_dataCtrl
  4581                           
  4582                           ;LE7-3.c: 146: dataCtrl('d');
  4583  0E0D  3064               	movlw	100
  4584  0E0E  120A  158A  2057  120A  158A  	fcall	_dataCtrl
  4585                           
  4586                           ;LE7-3.c: 147: dataCtrl('i');
  4587  0E13  3069               	movlw	105
  4588  0E14  120A  158A  2057  120A  158A  	fcall	_dataCtrl
  4589                           
  4590                           ;LE7-3.c: 148: dataCtrl('t');
  4591  0E19  3074               	movlw	116
  4592  0E1A  120A  158A  2057  120A  158A  	fcall	_dataCtrl
  4593                           
  4594                           ;LE7-3.c: 149: dataCtrl('y');
  4595  0E1F  3079               	movlw	121
  4596  0E20  120A  158A  2057  120A  158A  	fcall	_dataCtrl
  4597                           
  4598                           ;LE7-3.c: 150: dataCtrl(':');
  4599  0E25  303A               	movlw	58
  4600  0E26  120A  158A  2057  120A  158A  	fcall	_dataCtrl
  4601                           
  4602                           ;LE7-3.c: 152: instCtrl(0xC0);
  4603  0E2B  30C0               	movlw	192
  4604  0E2C  120A  158A  2096  120A  158A  	fcall	_instCtrl
  4605                           
  4606                           ;LE7-3.c: 153: dataCtrl('T');
  4607  0E31  3054               	movlw	84
  4608  0E32  120A  158A  2057  120A  158A  	fcall	_dataCtrl
  4609                           
  4610                           ;LE7-3.c: 154: dataCtrl('e');
  4611  0E37  3065               	movlw	101
  4612  0E38  120A  158A  2057  120A  158A  	fcall	_dataCtrl
  4613                           
  4614                           ;LE7-3.c: 155: dataCtrl('m');
  4615  0E3D  306D               	movlw	109
  4616  0E3E  120A  158A  2057  120A  158A  	fcall	_dataCtrl
  4617                           
  4618                           ;LE7-3.c: 156: dataCtrl('p');
  4619  0E43  3070               	movlw	112
  4620  0E44  120A  158A  2057  120A  158A  	fcall	_dataCtrl
  4621                           
  4622                           ;LE7-3.c: 157: dataCtrl('e');
  4623  0E49  3065               	movlw	101
  4624  0E4A  120A  158A  2057  120A  158A  	fcall	_dataCtrl
  4625                           
  4626                           ;LE7-3.c: 158: dataCtrl('r');
  4627  0E4F  3072               	movlw	114
  4628  0E50  120A  158A  2057  120A  158A  	fcall	_dataCtrl
  4629                           
  4630                           ;LE7-3.c: 159: dataCtrl('a');
  4631  0E55  3061               	movlw	97
  4632  0E56  120A  158A  2057  120A  158A  	fcall	_dataCtrl
  4633                           
  4634                           ;LE7-3.c: 160: dataCtrl('t');
  4635  0E5B  3074               	movlw	116
  4636  0E5C  120A  158A  2057  120A  158A  	fcall	_dataCtrl
  4637                           
  4638                           ;LE7-3.c: 161: dataCtrl('u');
  4639  0E61  3075               	movlw	117
  4640  0E62  120A  158A  2057  120A  158A  	fcall	_dataCtrl
  4641                           
  4642                           ;LE7-3.c: 162: dataCtrl('r');
  4643  0E67  3072               	movlw	114
  4644  0E68  120A  158A  2057  120A  158A  	fcall	_dataCtrl
  4645                           
  4646                           ;LE7-3.c: 163: dataCtrl('e');
  4647  0E6D  3065               	movlw	101
  4648  0E6E  120A  158A  2057  120A  158A  	fcall	_dataCtrl
  4649                           
  4650                           ;LE7-3.c: 164: dataCtrl(':');
  4651  0E73  303A               	movlw	58
  4652  0E74  120A  158A  2057   	fcall	_dataCtrl
  4653  0E77  0008               	return
  4654  0E78                     __end_of_initLCD:	
  4655                           
  4656                           	psect	text20
  4657  0ABE                     __ptext20:	
  4658 ;; *************** function _dispT *****************
  4659 ;; Defined at:
  4660 ;;		line 192 in file "Z:\CPE3201_SANIEL\PracticalActivities\PA7\LE7-3.c"
  4661 ;; Parameters:    Size  Location     Type
  4662 ;;		None
  4663 ;; Auto vars:     Size  Location     Type
  4664 ;;  i               2   10[BANK1 ] int 
  4665 ;;  val            10    0[BANK1 ] unsigned char [10]
  4666 ;; Return value:  Size  Location     Type
  4667 ;;		None               void
  4668 ;; Registers used:
  4669 ;;		wreg, fsr0l, fsr0h, status,2, status,0, btemp+1, pclath, cstack
  4670 ;; Tracked objects:
  4671 ;;		On entry : 0/0
  4672 ;;		On exit  : 0/0
  4673 ;;		Unchanged: 0/0
  4674 ;; Data sizes:     COMMON   BANK0   BANK1   BANK3   BANK2
  4675 ;;      Params:         0       0       0       0       0
  4676 ;;      Locals:         0       0      12       0       0
  4677 ;;      Temps:          0       1       0       0       0
  4678 ;;      Totals:         0       1      12       0       0
  4679 ;;Total ram usage:       13 bytes
  4680 ;; Hardware stack levels used:    1
  4681 ;; Hardware stack levels required when called:    2
  4682 ;; This function calls:
  4683 ;;		___fttol
  4684 ;;		_dataCtrl
  4685 ;;		_instCtrl
  4686 ;;		_sprintf
  4687 ;; This function is called by:
  4688 ;;		_main
  4689 ;; This function uses a non-reentrant model
  4690 ;;
  4691                           
  4692                           
  4693                           ;psect for function _dispT
  4694  0ABE                     _dispT:	
  4695                           
  4696                           ;LE7-3.c: 193: instCtrl(0xCD);
  4697                           
  4698                           ;incstack = 0
  4699                           ; Regs used in _dispT: [wreg-fsr0h+status,2+status,0+btemp+1+pclath+cstack]
  4700  0ABE  30CD               	movlw	205
  4701  0ABF  120A  158A  2096  120A  158A  	fcall	_instCtrl
  4702                           
  4703                           ;LE7-3.c: 195: char val[10];
  4704                           ;LE7-3.c: 199: sprintf(val, "%d", (int)T);
  4705  0AC4  3044               	movlw	(STR_1-__stringbase)& (0+255)
  4706  0AC5  1283               	bcf	3,5	;RP0=0, select bank0
  4707  0AC6  1303               	bcf	3,6	;RP1=0, select bank0
  4708  0AC7  00EA               	movwf	??_dispT
  4709  0AC8  086A               	movf	??_dispT,w
  4710  0AC9  00DB               	movwf	sprintf@f
  4711  0ACA  1683               	bsf	3,5	;RP0=1, select bank1
  4712  0ACB  1303               	bcf	3,6	;RP1=0, select bank1
  4713  0ACC  0847               	movf	_T^(0+128),w
  4714  0ACD  1283               	bcf	3,5	;RP0=0, select bank0
  4715  0ACE  1303               	bcf	3,6	;RP1=0, select bank0
  4716  0ACF  00CD               	movwf	___fttol@f1
  4717  0AD0  1683               	bsf	3,5	;RP0=1, select bank1
  4718  0AD1  1303               	bcf	3,6	;RP1=0, select bank1
  4719  0AD2  0848               	movf	(_T+1)^(0+128),w
  4720  0AD3  1283               	bcf	3,5	;RP0=0, select bank0
  4721  0AD4  1303               	bcf	3,6	;RP1=0, select bank0
  4722  0AD5  00CE               	movwf	___fttol@f1+1
  4723  0AD6  1683               	bsf	3,5	;RP0=1, select bank1
  4724  0AD7  1303               	bcf	3,6	;RP1=0, select bank1
  4725  0AD8  0849               	movf	(_T+2)^(0+128),w
  4726  0AD9  1283               	bcf	3,5	;RP0=0, select bank0
  4727  0ADA  1303               	bcf	3,6	;RP1=0, select bank0
  4728  0ADB  00CF               	movwf	___fttol@f1+2
  4729  0ADC  120A  158A  2405  120A  158A  	fcall	___fttol
  4730  0AE1  1283               	bcf	3,5	;RP0=0, select bank0
  4731  0AE2  1303               	bcf	3,6	;RP1=0, select bank0
  4732  0AE3  084E               	movf	?___fttol+1,w
  4733  0AE4  01DD               	clrf	?_sprintf+2
  4734  0AE5  07DD               	addwf	?_sprintf+2,f
  4735  0AE6  084D               	movf	?___fttol,w
  4736  0AE7  01DC               	clrf	?_sprintf+1
  4737  0AE8  07DC               	addwf	?_sprintf+1,f
  4738  0AE9  30A0               	movlw	dispT@val& (0+255)
  4739  0AEA  120A  118A  20F8  120A  158A  	fcall	_sprintf
  4740                           
  4741                           ;LE7-3.c: 201: for(int i = 0; val[i] != '\0'; i++) {
  4742  0AEF  1683               	bsf	3,5	;RP0=1, select bank1
  4743  0AF0  1303               	bcf	3,6	;RP1=0, select bank1
  4744  0AF1  01AA               	clrf	dispT@i^(0+128)
  4745  0AF2  01AB               	clrf	(dispT@i+1)^(0+128)
  4746  0AF3                     l2334:	
  4747  0AF3  082A               	movf	dispT@i^(0+128),w
  4748  0AF4  3EA0               	addlw	dispT@val& (0+255)
  4749  0AF5  0084               	movwf	4
  4750  0AF6  1383               	bcf	3,7	;select IRP bank1
  4751  0AF7  0880               	movf	0,f
  4752  0AF8  1903               	btfsc	3,2
  4753  0AF9  2B0D               	goto	l2336
  4754                           
  4755                           ;LE7-3.c: 202: dataCtrl(val[i]);
  4756  0AFA  082A               	movf	dispT@i^(0+128),w
  4757  0AFB  3EA0               	addlw	dispT@val& (0+255)
  4758  0AFC  0084               	movwf	4
  4759  0AFD  1383               	bcf	3,7	;select IRP bank1
  4760  0AFE  0800               	movf	0,w
  4761  0AFF  120A  158A  2057  120A  158A  	fcall	_dataCtrl
  4762  0B04  3001               	movlw	1
  4763  0B05  1683               	bsf	3,5	;RP0=1, select bank1
  4764  0B06  1303               	bcf	3,6	;RP1=0, select bank1
  4765  0B07  07AA               	addwf	dispT@i^(0+128),f
  4766  0B08  1803               	skipnc
  4767  0B09  0AAB               	incf	(dispT@i+1)^(0+128),f
  4768  0B0A  3000               	movlw	0
  4769  0B0B  07AB               	addwf	(dispT@i+1)^(0+128),f
  4770  0B0C  2AF3               	goto	l2334
  4771  0B0D                     l2336:	
  4772                           
  4773                           ;LE7-3.c: 203: }
  4774                           ;LE7-3.c: 205: dataCtrl(' ');
  4775  0B0D  3020               	movlw	32
  4776  0B0E  120A  158A  2057  120A  158A  	fcall	_dataCtrl
  4777                           
  4778                           ;LE7-3.c: 206: dataCtrl('C');
  4779  0B13  3043               	movlw	67
  4780  0B14  120A  158A  2057  120A  158A  	fcall	_dataCtrl
  4781                           
  4782                           ;LE7-3.c: 207: dataCtrl(' ');
  4783  0B19  3020               	movlw	32
  4784  0B1A  120A  158A  2057  120A  158A  	fcall	_dataCtrl
  4785                           
  4786                           ;LE7-3.c: 208: dataCtrl(' ');
  4787  0B1F  3020               	movlw	32
  4788  0B20  120A  158A  2057   	fcall	_dataCtrl
  4789  0B23  0008               	return
  4790  0B24                     __end_of_dispT:	
  4791                           
  4792                           	psect	text21
  4793  0C05                     __ptext21:	
  4794 ;; *************** function ___fttol *****************
  4795 ;; Defined at:
  4796 ;;		line 44 in file "C:\Program Files (x86)\Microchip\xc8\v1.33\sources\common\fttol.c"
  4797 ;; Parameters:    Size  Location     Type
  4798 ;;  f1              3   45[BANK0 ] float 
  4799 ;; Auto vars:     Size  Location     Type
  4800 ;;  lval            4   54[BANK0 ] unsigned long 
  4801 ;;  exp1            1   58[BANK0 ] unsigned char 
  4802 ;;  sign1           1   53[BANK0 ] unsigned char 
  4803 ;; Return value:  Size  Location     Type
  4804 ;;                  4   45[BANK0 ] long 
  4805 ;; Registers used:
  4806 ;;		wreg, status,2, status,0
  4807 ;; Tracked objects:
  4808 ;;		On entry : 0/0
  4809 ;;		On exit  : 0/0
  4810 ;;		Unchanged: 0/0
  4811 ;; Data sizes:     COMMON   BANK0   BANK1   BANK3   BANK2
  4812 ;;      Params:         0       4       0       0       0
  4813 ;;      Locals:         0       6       0       0       0
  4814 ;;      Temps:          0       4       0       0       0
  4815 ;;      Totals:         0      14       0       0       0
  4816 ;;Total ram usage:       14 bytes
  4817 ;; Hardware stack levels used:    1
  4818 ;; This function calls:
  4819 ;;		Nothing
  4820 ;; This function is called by:
  4821 ;;		_main
  4822 ;;		_dispT
  4823 ;;		_pow
  4824 ;;		_exp
  4825 ;;		_floor
  4826 ;; This function uses a non-reentrant model
  4827 ;;
  4828                           
  4829                           
  4830                           ;psect for function ___fttol
  4831  0C05                     ___fttol:	
  4832                           
  4833                           ;incstack = 0
  4834                           ; Regs used in ___fttol: [wreg+status,2+status,0]
  4835  0C05  1283               	bcf	3,5	;RP0=0, select bank0
  4836  0C06  1303               	bcf	3,6	;RP1=0, select bank0
  4837  0C07  084D               	movf	___fttol@f1,w
  4838  0C08  00D1               	movwf	??___fttol
  4839  0C09  084E               	movf	___fttol@f1+1,w
  4840  0C0A  00D2               	movwf	??___fttol+1
  4841  0C0B  084F               	movf	___fttol@f1+2,w
  4842  0C0C  00D3               	movwf	??___fttol+2
  4843  0C0D  1003               	clrc
  4844  0C0E  0D52               	rlf	??___fttol+1,w
  4845  0C0F  0D53               	rlf	??___fttol+2,w
  4846  0C10  00D4               	movwf	??___fttol+3
  4847  0C11  0854               	movf	??___fttol+3,w
  4848  0C12  00DA               	movwf	___fttol@exp1
  4849  0C13  08DA               	movf	___fttol@exp1,f
  4850  0C14  1D03               	skipz
  4851  0C15  2C1F               	goto	l1802
  4852  0C16  3000               	movlw	0
  4853  0C17  00D0               	movwf	?___fttol+3
  4854  0C18  3000               	movlw	0
  4855  0C19  00CF               	movwf	?___fttol+2
  4856  0C1A  3000               	movlw	0
  4857  0C1B  00CE               	movwf	?___fttol+1
  4858  0C1C  3000               	movlw	0
  4859  0C1D  00CD               	movwf	?___fttol
  4860  0C1E  0008               	return
  4861  0C1F                     l1802:	
  4862  0C1F  084D               	movf	___fttol@f1,w
  4863  0C20  00D1               	movwf	??___fttol
  4864  0C21  084E               	movf	___fttol@f1+1,w
  4865  0C22  00D2               	movwf	??___fttol+1
  4866  0C23  084F               	movf	___fttol@f1+2,w
  4867  0C24  00D3               	movwf	??___fttol+2
  4868  0C25  3017               	movlw	23
  4869  0C26                     u1995:	
  4870  0C26  1003               	clrc
  4871  0C27  0CD3               	rrf	??___fttol+2,f
  4872  0C28  0CD2               	rrf	??___fttol+1,f
  4873  0C29  0CD1               	rrf	??___fttol,f
  4874  0C2A  3EFF               	addlw	-1
  4875  0C2B  1D03               	skipz
  4876  0C2C  2C26               	goto	u1995
  4877  0C2D  0851               	movf	??___fttol,w
  4878  0C2E  00D4               	movwf	??___fttol+3
  4879  0C2F  0854               	movf	??___fttol+3,w
  4880  0C30  00D5               	movwf	___fttol@sign1
  4881  0C31  17CE               	bsf	___fttol@f1+1,7
  4882  0C32  30FF               	movlw	255
  4883  0C33  05CD               	andwf	___fttol@f1,f
  4884  0C34  30FF               	movlw	255
  4885  0C35  05CE               	andwf	___fttol@f1+1,f
  4886  0C36  3000               	movlw	0
  4887  0C37  05CF               	andwf	___fttol@f1+2,f
  4888  0C38  084D               	movf	___fttol@f1,w
  4889  0C39  00D6               	movwf	___fttol@lval
  4890  0C3A  084E               	movf	___fttol@f1+1,w
  4891  0C3B  00D7               	movwf	___fttol@lval+1
  4892  0C3C  084F               	movf	___fttol@f1+2,w
  4893  0C3D  00D8               	movwf	___fttol@lval+2
  4894  0C3E  01D9               	clrf	___fttol@lval+3
  4895  0C3F  308E               	movlw	142
  4896  0C40  02DA               	subwf	___fttol@exp1,f
  4897  0C41  1FDA               	btfss	___fttol@exp1,7
  4898  0C42  2C61               	goto	l1822
  4899  0C43  085A               	movf	___fttol@exp1,w
  4900  0C44  3A80               	xorlw	128
  4901  0C45  3E8F               	addlw	143
  4902  0C46  1803               	skipnc
  4903  0C47  2C51               	goto	l1820
  4904  0C48  3000               	movlw	0
  4905  0C49  00D0               	movwf	?___fttol+3
  4906  0C4A  3000               	movlw	0
  4907  0C4B  00CF               	movwf	?___fttol+2
  4908  0C4C  3000               	movlw	0
  4909  0C4D  00CE               	movwf	?___fttol+1
  4910  0C4E  3000               	movlw	0
  4911  0C4F  00CD               	movwf	?___fttol
  4912  0C50  0008               	return
  4913  0C51                     l1820:	
  4914  0C51  3001               	movlw	1
  4915  0C52                     u2025:	
  4916  0C52  1003               	clrc
  4917  0C53  0CD9               	rrf	___fttol@lval+3,f
  4918  0C54  0CD8               	rrf	___fttol@lval+2,f
  4919  0C55  0CD7               	rrf	___fttol@lval+1,f
  4920  0C56  0CD6               	rrf	___fttol@lval,f
  4921  0C57  3EFF               	addlw	-1
  4922  0C58  1D03               	skipz
  4923  0C59  2C52               	goto	u2025
  4924  0C5A  3001               	movlw	1
  4925  0C5B  00D1               	movwf	??___fttol
  4926  0C5C  0851               	movf	??___fttol,w
  4927  0C5D  07DA               	addwf	___fttol@exp1,f
  4928  0C5E  1903               	btfsc	3,2
  4929  0C5F  2C7C               	goto	l1832
  4930  0C60  2C51               	goto	l1820
  4931  0C61                     l1822:	
  4932  0C61  3018               	movlw	24
  4933  0C62  025A               	subwf	___fttol@exp1,w
  4934  0C63  1C03               	skipc
  4935  0C64  2C79               	goto	l1830
  4936  0C65  3000               	movlw	0
  4937  0C66  00D0               	movwf	?___fttol+3
  4938  0C67  3000               	movlw	0
  4939  0C68  00CF               	movwf	?___fttol+2
  4940  0C69  3000               	movlw	0
  4941  0C6A  00CE               	movwf	?___fttol+1
  4942  0C6B  3000               	movlw	0
  4943  0C6C  00CD               	movwf	?___fttol
  4944  0C6D  0008               	return
  4945  0C6E                     l1828:	
  4946  0C6E  3001               	movlw	1
  4947  0C6F  00D1               	movwf	??___fttol
  4948  0C70                     u2055:	
  4949  0C70  1003               	clrc
  4950  0C71  0DD6               	rlf	___fttol@lval,f
  4951  0C72  0DD7               	rlf	___fttol@lval+1,f
  4952  0C73  0DD8               	rlf	___fttol@lval+2,f
  4953  0C74  0DD9               	rlf	___fttol@lval+3,f
  4954  0C75  0BD1               	decfsz	??___fttol,f
  4955  0C76  2C70               	goto	u2055
  4956  0C77  3001               	movlw	1
  4957  0C78  02DA               	subwf	___fttol@exp1,f
  4958  0C79                     l1830:	
  4959  0C79  08DA               	movf	___fttol@exp1,f
  4960  0C7A  1D03               	skipz
  4961  0C7B  2C6E               	goto	l1828
  4962  0C7C                     l1832:	
  4963  0C7C  0855               	movf	___fttol@sign1,w
  4964  0C7D  1903               	btfsc	3,2
  4965  0C7E  2C8A               	goto	l1836
  4966  0C7F  09D6               	comf	___fttol@lval,f
  4967  0C80  09D7               	comf	___fttol@lval+1,f
  4968  0C81  09D8               	comf	___fttol@lval+2,f
  4969  0C82  09D9               	comf	___fttol@lval+3,f
  4970  0C83  0AD6               	incf	___fttol@lval,f
  4971  0C84  1903               	skipnz
  4972  0C85  0AD7               	incf	___fttol@lval+1,f
  4973  0C86  1903               	skipnz
  4974  0C87  0AD8               	incf	___fttol@lval+2,f
  4975  0C88  1903               	skipnz
  4976  0C89  0AD9               	incf	___fttol@lval+3,f
  4977  0C8A                     l1836:	
  4978  0C8A  0859               	movf	___fttol@lval+3,w
  4979  0C8B  00D0               	movwf	?___fttol+3
  4980  0C8C  0858               	movf	___fttol@lval+2,w
  4981  0C8D  00CF               	movwf	?___fttol+2
  4982  0C8E  0857               	movf	___fttol@lval+1,w
  4983  0C8F  00CE               	movwf	?___fttol+1
  4984  0C90  0856               	movf	___fttol@lval,w
  4985  0C91  00CD               	movwf	?___fttol
  4986  0C92  0008               	return
  4987  0C93                     __end_of___fttol:	
  4988                           
  4989                           	psect	text22
  4990  0A12                     __ptext22:	
  4991 ;; *************** function _dispRH *****************
  4992 ;; Defined at:
  4993 ;;		line 176 in file "Z:\CPE3201_SANIEL\PracticalActivities\PA7\LE7-3.c"
  4994 ;; Parameters:    Size  Location     Type
  4995 ;;		None
  4996 ;; Auto vars:     Size  Location     Type
  4997 ;;  i               2   10[BANK1 ] int 
  4998 ;;  val            10    0[BANK1 ] unsigned char [10]
  4999 ;; Return value:  Size  Location     Type
  5000 ;;		None               void
  5001 ;; Registers used:
  5002 ;;		wreg, fsr0l, fsr0h, status,2, status,0, btemp+1, pclath, cstack
  5003 ;; Tracked objects:
  5004 ;;		On entry : 0/0
  5005 ;;		On exit  : 0/0
  5006 ;;		Unchanged: 0/0
  5007 ;; Data sizes:     COMMON   BANK0   BANK1   BANK3   BANK2
  5008 ;;      Params:         0       0       0       0       0
  5009 ;;      Locals:         0       0      12       0       0
  5010 ;;      Temps:          0       1       0       0       0
  5011 ;;      Totals:         0       1      12       0       0
  5012 ;;Total ram usage:       13 bytes
  5013 ;; Hardware stack levels used:    1
  5014 ;; Hardware stack levels required when called:    2
  5015 ;; This function calls:
  5016 ;;		_dataCtrl
  5017 ;;		_instCtrl
  5018 ;;		_sprintf
  5019 ;; This function is called by:
  5020 ;;		_main
  5021 ;; This function uses a non-reentrant model
  5022 ;;
  5023                           
  5024                           
  5025                           ;psect for function _dispRH
  5026  0A12                     _dispRH:	
  5027                           
  5028                           ;LE7-3.c: 177: instCtrl(0x8A);
  5029                           
  5030                           ;incstack = 0
  5031                           ; Regs used in _dispRH: [wreg-fsr0h+status,2+status,0+btemp+1+pclath+cstack]
  5032  0A12  308A               	movlw	138
  5033  0A13  120A  158A  2096  120A  158A  	fcall	_instCtrl
  5034                           
  5035                           ;LE7-3.c: 179: char val[10];
  5036                           ;LE7-3.c: 180: sprintf(val, "%d", RH);
  5037  0A18  3044               	movlw	(STR_1-__stringbase)& (0+255)
  5038  0A19  1283               	bcf	3,5	;RP0=0, select bank0
  5039  0A1A  1303               	bcf	3,6	;RP1=0, select bank0
  5040  0A1B  00EA               	movwf	??_dispRH
  5041  0A1C  086A               	movf	??_dispRH,w
  5042  0A1D  00DB               	movwf	sprintf@f
  5043  0A1E  1683               	bsf	3,5	;RP0=1, select bank1
  5044  0A1F  1303               	bcf	3,6	;RP1=0, select bank1
  5045  0A20  084B               	movf	(_RH+1)^(0+128),w
  5046  0A21  1283               	bcf	3,5	;RP0=0, select bank0
  5047  0A22  1303               	bcf	3,6	;RP1=0, select bank0
  5048  0A23  01DD               	clrf	?_sprintf+2
  5049  0A24  07DD               	addwf	?_sprintf+2,f
  5050  0A25  1683               	bsf	3,5	;RP0=1, select bank1
  5051  0A26  1303               	bcf	3,6	;RP1=0, select bank1
  5052  0A27  084A               	movf	_RH^(0+128),w
  5053  0A28  1283               	bcf	3,5	;RP0=0, select bank0
  5054  0A29  1303               	bcf	3,6	;RP1=0, select bank0
  5055  0A2A  01DC               	clrf	?_sprintf+1
  5056  0A2B  07DC               	addwf	?_sprintf+1,f
  5057  0A2C  30A0               	movlw	dispRH@val& (0+255)
  5058  0A2D  120A  118A  20F8  120A  158A  	fcall	_sprintf
  5059                           
  5060                           ;LE7-3.c: 183: for(int i = 0; val[i] != '\0'; i++) {
  5061  0A32  1683               	bsf	3,5	;RP0=1, select bank1
  5062  0A33  1303               	bcf	3,6	;RP1=0, select bank1
  5063  0A34  01AA               	clrf	dispRH@i^(0+128)
  5064  0A35  01AB               	clrf	(dispRH@i+1)^(0+128)
  5065  0A36                     l2320:	
  5066  0A36  082A               	movf	dispRH@i^(0+128),w
  5067  0A37  3EA0               	addlw	dispRH@val& (0+255)
  5068  0A38  0084               	movwf	4
  5069  0A39  1383               	bcf	3,7	;select IRP bank1
  5070  0A3A  0880               	movf	0,f
  5071  0A3B  1903               	btfsc	3,2
  5072  0A3C  2A50               	goto	l2322
  5073                           
  5074                           ;LE7-3.c: 184: dataCtrl(val[i]);
  5075  0A3D  082A               	movf	dispRH@i^(0+128),w
  5076  0A3E  3EA0               	addlw	dispRH@val& (0+255)
  5077  0A3F  0084               	movwf	4
  5078  0A40  1383               	bcf	3,7	;select IRP bank1
  5079  0A41  0800               	movf	0,w
  5080  0A42  120A  158A  2057  120A  158A  	fcall	_dataCtrl
  5081  0A47  3001               	movlw	1
  5082  0A48  1683               	bsf	3,5	;RP0=1, select bank1
  5083  0A49  1303               	bcf	3,6	;RP1=0, select bank1
  5084  0A4A  07AA               	addwf	dispRH@i^(0+128),f
  5085  0A4B  1803               	skipnc
  5086  0A4C  0AAB               	incf	(dispRH@i+1)^(0+128),f
  5087  0A4D  3000               	movlw	0
  5088  0A4E  07AB               	addwf	(dispRH@i+1)^(0+128),f
  5089  0A4F  2A36               	goto	l2320
  5090  0A50                     l2322:	
  5091                           
  5092                           ;LE7-3.c: 185: }
  5093                           ;LE7-3.c: 187: dataCtrl('%');
  5094  0A50  3025               	movlw	37
  5095  0A51  120A  158A  2057  120A  158A  	fcall	_dataCtrl
  5096                           
  5097                           ;LE7-3.c: 188: dataCtrl(' ');
  5098  0A56  3020               	movlw	32
  5099  0A57  120A  158A  2057  120A  158A  	fcall	_dataCtrl
  5100                           
  5101                           ;LE7-3.c: 189: dataCtrl(' ');
  5102  0A5C  3020               	movlw	32
  5103  0A5D  120A  158A  2057   	fcall	_dataCtrl
  5104  0A60  0008               	return
  5105  0A61                     __end_of_dispRH:	
  5106                           
  5107                           	psect	text23
  5108  00F8                     __ptext23:	
  5109 ;; *************** function _sprintf *****************
  5110 ;; Defined at:
  5111 ;;		line 492 in file "C:\Program Files (x86)\Microchip\xc8\v1.33\sources\common\doprnt.c"
  5112 ;; Parameters:    Size  Location     Type
  5113 ;;  sp              1    wreg     PTR unsigned char 
  5114 ;;		 -> dispT@val(10), dispRH@val(10), 
  5115 ;;  f               1   59[BANK0 ] PTR const unsigned char 
  5116 ;;		 -> STR_2(3), STR_1(3), 
  5117 ;; Auto vars:     Size  Location     Type
  5118 ;;  sp              1   72[BANK0 ] PTR unsigned char 
  5119 ;;		 -> dispT@val(10), dispRH@val(10), 
  5120 ;;  _val            4   68[BANK0 ] struct .
  5121 ;;  c               1   73[BANK0 ] char 
  5122 ;;  prec            1   67[BANK0 ] char 
  5123 ;;  flag            1   66[BANK0 ] unsigned char 
  5124 ;;  ap              1   65[BANK0 ] PTR void [1]
  5125 ;;		 -> ?_sprintf(2), 
  5126 ;; Return value:  Size  Location     Type
  5127 ;;                  2   59[BANK0 ] int 
  5128 ;; Registers used:
  5129 ;;		wreg, fsr0l, fsr0h, status,2, status,0, btemp+1, pclath, cstack
  5130 ;; Tracked objects:
  5131 ;;		On entry : 0/0
  5132 ;;		On exit  : 0/0
  5133 ;;		Unchanged: 0/0
  5134 ;; Data sizes:     COMMON   BANK0   BANK1   BANK3   BANK2
  5135 ;;      Params:         0       3       0       0       0
  5136 ;;      Locals:         0       9       0       0       0
  5137 ;;      Temps:          0       3       0       0       0
  5138 ;;      Totals:         0      15       0       0       0
  5139 ;;Total ram usage:       15 bytes
  5140 ;; Hardware stack levels used:    1
  5141 ;; Hardware stack levels required when called:    1
  5142 ;; This function calls:
  5143 ;;		___lwdiv
  5144 ;;		___lwmod
  5145 ;; This function is called by:
  5146 ;;		_dispRH
  5147 ;;		_dispT
  5148 ;; This function uses a non-reentrant model
  5149 ;;
  5150                           
  5151                           
  5152                           ;psect for function _sprintf
  5153  00F8                     _sprintf:	
  5154                           
  5155                           ;incstack = 0
  5156                           ; Regs used in _sprintf: [wreg-fsr0h+status,2+status,0+btemp+1+pclath+cstack]
  5157                           ;sprintf@sp stored from wreg
  5158  00F8  1283               	bcf	3,5	;RP0=0, select bank0
  5159  00F9  1303               	bcf	3,6	;RP1=0, select bank0
  5160  00FA  00E8               	movwf	sprintf@sp
  5161                           
  5162                           ;doprnt.c: 494: va_list ap;
  5163                           ;doprnt.c: 499: signed char c;
  5164                           ;doprnt.c: 506: signed char prec;
  5165                           ;doprnt.c: 508: unsigned char flag;
  5166                           ;doprnt.c: 527: union {
  5167                           ;doprnt.c: 528: unsigned int _val;
  5168                           ;doprnt.c: 529: struct {
  5169                           ;doprnt.c: 530: const char * _cp;
  5170                           ;doprnt.c: 531: unsigned _len;
  5171                           ;doprnt.c: 532: } _str;
  5172                           ;doprnt.c: 533: } _val;
  5173                           ;doprnt.c: 542: *ap = __va_start();
  5174  00FB  305C               	movlw	(?_sprintf+1)& (0+255)
  5175  00FC  00DE               	movwf	??_sprintf
  5176  00FD  085E               	movf	??_sprintf,w
  5177  00FE  00E1               	movwf	sprintf@ap
  5178  00FF                     l2132:	
  5179                           ;doprnt.c: 545: while(c = *f++) {
  5180                           
  5181  00FF  3001               	movlw	1
  5182  0100  07DB               	addwf	sprintf@f,f
  5183  0101  30FF               	movlw	-1
  5184  0102  075B               	addwf	sprintf@f,w
  5185  0103  0084               	movwf	4
  5186  0104  120A  158A  2000  120A  118A  	fcall	stringdir
  5187  0109  00DE               	movwf	??_sprintf
  5188  010A  085E               	movf	??_sprintf,w
  5189  010B  00E9               	movwf	sprintf@c
  5190  010C  08E9               	movf	sprintf@c,f
  5191  010D  1903               	btfsc	3,2
  5192  010E  29CC               	goto	l2134
  5193                           
  5194                           ;doprnt.c: 547: if(c != '%')
  5195  010F  0869               	movf	sprintf@c,w
  5196  0110  3A25               	xorlw	37
  5197  0111  1903               	skipnz
  5198  0112  291F               	goto	l2088
  5199                           
  5200                           ;doprnt.c: 549: {
  5201                           ;doprnt.c: 550: ((*sp++ = (c)));
  5202  0113  0869               	movf	sprintf@c,w
  5203  0114  00DE               	movwf	??_sprintf
  5204  0115  0868               	movf	sprintf@sp,w
  5205  0116  0084               	movwf	4
  5206  0117  085E               	movf	??_sprintf,w
  5207  0118  1383               	bcf	3,7	;select IRP bank0
  5208  0119  0080               	movwf	0
  5209  011A  3001               	movlw	1
  5210  011B  00DE               	movwf	??_sprintf
  5211  011C  085E               	movf	??_sprintf,w
  5212  011D  07E8               	addwf	sprintf@sp,f
  5213                           
  5214                           ;doprnt.c: 551: continue;
  5215  011E  28FF               	goto	l2132
  5216  011F                     l2088:	
  5217                           
  5218                           ;doprnt.c: 552: }
  5219                           ;doprnt.c: 557: flag = 0;
  5220  011F  01E2               	clrf	sprintf@flag
  5221                           
  5222                           ;doprnt.c: 831: }
  5223                           
  5224                           ;doprnt.c: 822: continue;
  5225                           
  5226                           ;doprnt.c: 811: default:
  5227                           
  5228                           ;doprnt.c: 707: case 'i':
  5229                           ;doprnt.c: 708: break;
  5230                           
  5231                           ;doprnt.c: 706: case 'd':
  5232                           
  5233                           ;doprnt.c: 647: goto alldone;
  5234                           
  5235                           ;doprnt.c: 646: case 0:
  5236                           
  5237                           ;doprnt.c: 644: switch(c = *f++) {
  5238  0120  3001               	movlw	1
  5239  0121  07DB               	addwf	sprintf@f,f
  5240  0122  30FF               	movlw	-1
  5241  0123  075B               	addwf	sprintf@f,w
  5242  0124  0084               	movwf	4
  5243  0125  120A  158A  2000  120A  118A  	fcall	stringdir
  5244  012A  00E9               	movwf	sprintf@c
  5245                           
  5246                           ; Switch size 1, requested type "space"
  5247                           ; Number of cases is 3, Range of values is 0 to 105
  5248                           ; switch strategies available:
  5249                           ; Name         Instructions Cycles
  5250                           ; simple_byte           10     6 (average)
  5251                           ; jumptable            260     6 (fixed)
  5252                           ;	Chosen strategy is simple_byte
  5253  012B  3A00               	xorlw	0	; case 0
  5254  012C  1903               	skipnz
  5255  012D  29CC               	goto	l2134
  5256  012E  3A64               	xorlw	100	; case 100
  5257  012F  1903               	skipnz
  5258  0130  2935               	goto	l2094
  5259  0131  3A0D               	xorlw	13	; case 105
  5260  0132  1903               	skipnz
  5261  0133  2935               	goto	l2094
  5262  0134  28FF               	goto	l2132
  5263  0135                     l2094:	
  5264                           
  5265                           ;doprnt.c: 1262: {
  5266                           ;doprnt.c: 1268: _val._val = (int)(*(int *)__va_arg((*(int **)ap), (int)0));
  5267  0135  0861               	movf	sprintf@ap,w
  5268  0136  0084               	movwf	4
  5269  0137  1383               	bcf	3,7	;select IRP bank0
  5270  0138  0800               	movf	0,w
  5271  0139  00E4               	movwf	sprintf@_val
  5272  013A  0A84               	incf	4,f
  5273  013B  0800               	movf	0,w
  5274  013C  00E5               	movwf	sprintf@_val+1
  5275  013D  3002               	movlw	2
  5276  013E  00DE               	movwf	??_sprintf
  5277  013F  085E               	movf	??_sprintf,w
  5278  0140  07E1               	addwf	sprintf@ap,f
  5279                           
  5280                           ;doprnt.c: 1270: if((int)_val._val < 0) {
  5281  0141  1FE5               	btfss	sprintf@_val+1,7
  5282  0142  294C               	goto	l2104
  5283                           
  5284                           ;doprnt.c: 1271: flag |= 0x03;
  5285  0143  3003               	movlw	3
  5286  0144  00DE               	movwf	??_sprintf
  5287  0145  085E               	movf	??_sprintf,w
  5288  0146  04E2               	iorwf	sprintf@flag,f
  5289                           
  5290                           ;doprnt.c: 1272: _val._val = -_val._val;
  5291  0147  09E4               	comf	sprintf@_val,f
  5292  0148  09E5               	comf	sprintf@_val+1,f
  5293  0149  0AE4               	incf	sprintf@_val,f
  5294  014A  1903               	skipnz
  5295  014B  0AE5               	incf	sprintf@_val+1,f
  5296  014C                     l2104:	
  5297                           
  5298                           ;doprnt.c: 1273: }
  5299                           ;doprnt.c: 1275: }
  5300                           ;doprnt.c: 1314: for(c = 1 ; c != sizeof dpowers/sizeof dpowers[0] ; c++)
  5301  014C  01E9               	clrf	sprintf@c
  5302  014D  0AE9               	incf	sprintf@c,f
  5303  014E  0869               	movf	sprintf@c,w
  5304  014F  3A05               	xorlw	5
  5305  0150  1903               	btfsc	3,2
  5306  0151  2973               	goto	l2116
  5307  0152                     l2108:	
  5308                           
  5309                           ;doprnt.c: 1315: if(_val._val < dpowers[c])
  5310  0152  0869               	movf	sprintf@c,w
  5311  0153  00DE               	movwf	??_sprintf
  5312  0154  075E               	addwf	??_sprintf,w
  5313  0155  3E01               	addlw	low (_dpowers-__stringbase)
  5314  0156  0084               	movwf	4
  5315  0157  120A  158A  2000  120A  118A  	fcall	stringdir
  5316  015C  00DF               	movwf	??_sprintf+1
  5317  015D  120A  158A  2000  120A  118A  	fcall	stringdir
  5318  0162  00E0               	movwf	??_sprintf+2
  5319  0163  0860               	movf	??_sprintf+2,w
  5320  0164  0265               	subwf	sprintf@_val+1,w
  5321  0165  1D03               	skipz
  5322  0166  2969               	goto	u2445
  5323  0167  085F               	movf	??_sprintf+1,w
  5324  0168  0264               	subwf	sprintf@_val,w
  5325  0169                     u2445:	
  5326  0169  1C03               	btfss	3,0
  5327  016A  2973               	goto	l2116
  5328                           
  5329                           ;doprnt.c: 1316: break;
  5330  016B  3001               	movlw	1
  5331  016C  00DE               	movwf	??_sprintf
  5332  016D  085E               	movf	??_sprintf,w
  5333  016E  07E9               	addwf	sprintf@c,f
  5334  016F  0869               	movf	sprintf@c,w
  5335  0170  3A05               	xorlw	5
  5336  0171  1D03               	skipz
  5337  0172  2952               	goto	l2108
  5338  0173                     l2116:	
  5339                           
  5340                           ;doprnt.c: 1431: {
  5341                           ;doprnt.c: 1447: if(flag & 0x03)
  5342  0173  0862               	movf	sprintf@flag,w
  5343  0174  3903               	andlw	3
  5344  0175  1903               	btfsc	3,2
  5345  0176  2982               	goto	l2122
  5346                           
  5347                           ;doprnt.c: 1448: ((*sp++ = ('-')));
  5348  0177  302D               	movlw	45
  5349  0178  00DE               	movwf	??_sprintf
  5350  0179  0868               	movf	sprintf@sp,w
  5351  017A  0084               	movwf	4
  5352  017B  085E               	movf	??_sprintf,w
  5353  017C  1383               	bcf	3,7	;select IRP bank0
  5354  017D  0080               	movwf	0
  5355  017E  3001               	movlw	1
  5356  017F  00DE               	movwf	??_sprintf
  5357  0180  085E               	movf	??_sprintf,w
  5358  0181  07E8               	addwf	sprintf@sp,f
  5359  0182                     l2122:	
  5360                           
  5361                           ;doprnt.c: 1478: }
  5362                           ;doprnt.c: 1481: prec = c;
  5363  0182  0869               	movf	sprintf@c,w
  5364  0183  00DE               	movwf	??_sprintf
  5365  0184  085E               	movf	??_sprintf,w
  5366  0185  00E3               	movwf	sprintf@prec
  5367  0186                     l2130:	
  5368                           ;doprnt.c: 1483: while(prec--) {
  5369                           
  5370  0186  30FF               	movlw	-1
  5371  0187  00DE               	movwf	??_sprintf
  5372  0188  085E               	movf	??_sprintf,w
  5373  0189  07E3               	addwf	sprintf@prec,f
  5374  018A  0863               	movf	sprintf@prec,w
  5375  018B  3AFF               	xorlw	-1
  5376  018C  1903               	btfsc	3,2
  5377  018D  28FF               	goto	l2132
  5378                           
  5379                           ;doprnt.c: 1487: {
  5380                           ;doprnt.c: 1498: c = (_val._val / dpowers[prec]) % 10 + '0';
  5381  018E  300A               	movlw	10
  5382  018F  00F8               	movwf	___lwmod@divisor
  5383  0190  3000               	movlw	0
  5384  0191  00F9               	movwf	___lwmod@divisor+1
  5385  0192  0863               	movf	sprintf@prec,w
  5386  0193  00DE               	movwf	??_sprintf
  5387  0194  075E               	addwf	??_sprintf,w
  5388  0195  3E01               	addlw	low (_dpowers-__stringbase)
  5389  0196  0084               	movwf	4
  5390  0197  120A  158A  2000  120A  118A  	fcall	stringdir
  5391  019C  00F0               	movwf	___lwdiv@divisor
  5392  019D  120A  158A  2000  120A  118A  	fcall	stringdir
  5393  01A2  00F1               	movwf	___lwdiv@divisor+1
  5394  01A3  0865               	movf	sprintf@_val+1,w
  5395  01A4  01F3               	clrf	___lwdiv@dividend+1
  5396  01A5  07F3               	addwf	___lwdiv@dividend+1,f
  5397  01A6  0864               	movf	sprintf@_val,w
  5398  01A7  01F2               	clrf	___lwdiv@dividend
  5399  01A8  07F2               	addwf	___lwdiv@dividend,f
  5400  01A9  120A  158A  2152  120A  118A  	fcall	___lwdiv
  5401  01AE  0871               	movf	?___lwdiv+1,w
  5402  01AF  01FB               	clrf	___lwmod@dividend+1
  5403  01B0  07FB               	addwf	___lwmod@dividend+1,f
  5404  01B1  0870               	movf	?___lwdiv,w
  5405  01B2  01FA               	clrf	___lwmod@dividend
  5406  01B3  07FA               	addwf	___lwmod@dividend,f
  5407  01B4  120A  158A  211E  120A  118A  	fcall	___lwmod
  5408  01B9  0878               	movf	?___lwmod,w
  5409  01BA  3E30               	addlw	48
  5410  01BB  1283               	bcf	3,5	;RP0=0, select bank0
  5411  01BC  1303               	bcf	3,6	;RP1=0, select bank0
  5412  01BD  00DF               	movwf	??_sprintf+1
  5413  01BE  085F               	movf	??_sprintf+1,w
  5414  01BF  00E9               	movwf	sprintf@c
  5415                           
  5416                           ;doprnt.c: 1532: }
  5417                           ;doprnt.c: 1533: ((*sp++ = (c)));
  5418  01C0  0869               	movf	sprintf@c,w
  5419  01C1  00DE               	movwf	??_sprintf
  5420  01C2  0868               	movf	sprintf@sp,w
  5421  01C3  0084               	movwf	4
  5422  01C4  085E               	movf	??_sprintf,w
  5423  01C5  1383               	bcf	3,7	;select IRP bank0
  5424  01C6  0080               	movwf	0
  5425  01C7  3001               	movlw	1
  5426  01C8  00DE               	movwf	??_sprintf
  5427  01C9  085E               	movf	??_sprintf,w
  5428  01CA  07E8               	addwf	sprintf@sp,f
  5429  01CB  2986               	goto	l2130
  5430  01CC                     l2134:	
  5431                           ;doprnt.c: 1534: }
  5432                           ;doprnt.c: 1542: }
  5433                           ;doprnt.c: 1544: alldone:
  5434                           
  5435                           
  5436                           ;doprnt.c: 1547: *sp = 0;
  5437  01CC  0868               	movf	sprintf@sp,w
  5438  01CD  0084               	movwf	4
  5439  01CE  1383               	bcf	3,7	;select IRP bank0
  5440  01CF  0180               	clrf	0
  5441  01D0  0008               	return
  5442  01D1                     __end_of_sprintf:	
  5443                           ;doprnt.c: 1549: return 0;
  5444                           ;	Return value of _sprintf is never used
  5445                           
  5446                           
  5447                           	psect	text24
  5448  091E                     __ptext24:	
  5449 ;; *************** function ___lwmod *****************
  5450 ;; Defined at:
  5451 ;;		line 6 in file "C:\Program Files (x86)\Microchip\xc8\v1.33\sources\common\lwmod.c"
  5452 ;; Parameters:    Size  Location     Type
  5453 ;;  divisor         2    8[COMMON] unsigned int 
  5454 ;;  dividend        2   10[COMMON] unsigned int 
  5455 ;; Auto vars:     Size  Location     Type
  5456 ;;  counter         1   13[COMMON] unsigned char 
  5457 ;; Return value:  Size  Location     Type
  5458 ;;                  2    8[COMMON] unsigned int 
  5459 ;; Registers used:
  5460 ;;		wreg, status,2, status,0
  5461 ;; Tracked objects:
  5462 ;;		On entry : 0/0
  5463 ;;		On exit  : 0/0
  5464 ;;		Unchanged: 0/0
  5465 ;; Data sizes:     COMMON   BANK0   BANK1   BANK3   BANK2
  5466 ;;      Params:         4       0       0       0       0
  5467 ;;      Locals:         1       0       0       0       0
  5468 ;;      Temps:          1       0       0       0       0
  5469 ;;      Totals:         6       0       0       0       0
  5470 ;;Total ram usage:        6 bytes
  5471 ;; Hardware stack levels used:    1
  5472 ;; This function calls:
  5473 ;;		Nothing
  5474 ;; This function is called by:
  5475 ;;		_sprintf
  5476 ;; This function uses a non-reentrant model
  5477 ;;
  5478                           
  5479                           
  5480                           ;psect for function ___lwmod
  5481  091E                     ___lwmod:	
  5482                           
  5483                           ;incstack = 0
  5484                           ; Regs used in ___lwmod: [wreg+status,2+status,0]
  5485  091E  0879               	movf	___lwmod@divisor+1,w
  5486  091F  0478               	iorwf	___lwmod@divisor,w
  5487  0920  1903               	skipnz
  5488  0921  294B               	goto	l1970
  5489  0922  01FD               	clrf	___lwmod@counter
  5490  0923  0AFD               	incf	___lwmod@counter,f
  5491  0924                     l1960:	
  5492  0924  1BF9               	btfsc	___lwmod@divisor+1,7
  5493  0925  2932               	goto	l1962
  5494  0926  3001               	movlw	1
  5495  0927                     u2275:	
  5496  0927  1003               	clrc
  5497  0928  0DF8               	rlf	___lwmod@divisor,f
  5498  0929  0DF9               	rlf	___lwmod@divisor+1,f
  5499  092A  3EFF               	addlw	-1
  5500  092B  1D03               	skipz
  5501  092C  2927               	goto	u2275
  5502  092D  3001               	movlw	1
  5503  092E  00FC               	movwf	??___lwmod
  5504  092F  087C               	movf	??___lwmod,w
  5505  0930  07FD               	addwf	___lwmod@counter,f
  5506  0931  2924               	goto	l1960
  5507  0932                     l1962:	
  5508  0932  0879               	movf	___lwmod@divisor+1,w
  5509  0933  027B               	subwf	___lwmod@dividend+1,w
  5510  0934  1D03               	skipz
  5511  0935  2938               	goto	u2295
  5512  0936  0878               	movf	___lwmod@divisor,w
  5513  0937  027A               	subwf	___lwmod@dividend,w
  5514  0938                     u2295:	
  5515  0938  1C03               	skipc
  5516  0939  2940               	goto	l1966
  5517  093A  0878               	movf	___lwmod@divisor,w
  5518  093B  02FA               	subwf	___lwmod@dividend,f
  5519  093C  0879               	movf	___lwmod@divisor+1,w
  5520  093D  1C03               	skipc
  5521  093E  03FB               	decf	___lwmod@dividend+1,f
  5522  093F  02FB               	subwf	___lwmod@dividend+1,f
  5523  0940                     l1966:	
  5524  0940  3001               	movlw	1
  5525  0941                     u2305:	
  5526  0941  1003               	clrc
  5527  0942  0CF9               	rrf	___lwmod@divisor+1,f
  5528  0943  0CF8               	rrf	___lwmod@divisor,f
  5529  0944  3EFF               	addlw	-1
  5530  0945  1D03               	skipz
  5531  0946  2941               	goto	u2305
  5532  0947  3001               	movlw	1
  5533  0948  02FD               	subwf	___lwmod@counter,f
  5534  0949  1D03               	btfss	3,2
  5535  094A  2932               	goto	l1962
  5536  094B                     l1970:	
  5537  094B  087B               	movf	___lwmod@dividend+1,w
  5538  094C  01F9               	clrf	?___lwmod+1
  5539  094D  07F9               	addwf	?___lwmod+1,f
  5540  094E  087A               	movf	___lwmod@dividend,w
  5541  094F  01F8               	clrf	?___lwmod
  5542  0950  07F8               	addwf	?___lwmod,f
  5543  0951  0008               	return
  5544  0952                     __end_of___lwmod:	
  5545                           
  5546                           	psect	text25
  5547  0952                     __ptext25:	
  5548 ;; *************** function ___lwdiv *****************
  5549 ;; Defined at:
  5550 ;;		line 6 in file "C:\Program Files (x86)\Microchip\xc8\v1.33\sources\common\lwdiv.c"
  5551 ;; Parameters:    Size  Location     Type
  5552 ;;  divisor         2    0[COMMON] unsigned int 
  5553 ;;  dividend        2    2[COMMON] unsigned int 
  5554 ;; Auto vars:     Size  Location     Type
  5555 ;;  quotient        2    5[COMMON] unsigned int 
  5556 ;;  counter         1    7[COMMON] unsigned char 
  5557 ;; Return value:  Size  Location     Type
  5558 ;;                  2    0[COMMON] unsigned int 
  5559 ;; Registers used:
  5560 ;;		wreg, status,2, status,0
  5561 ;; Tracked objects:
  5562 ;;		On entry : 0/0
  5563 ;;		On exit  : 0/0
  5564 ;;		Unchanged: 0/0
  5565 ;; Data sizes:     COMMON   BANK0   BANK1   BANK3   BANK2
  5566 ;;      Params:         4       0       0       0       0
  5567 ;;      Locals:         3       0       0       0       0
  5568 ;;      Temps:          1       0       0       0       0
  5569 ;;      Totals:         8       0       0       0       0
  5570 ;;Total ram usage:        8 bytes
  5571 ;; Hardware stack levels used:    1
  5572 ;; This function calls:
  5573 ;;		Nothing
  5574 ;; This function is called by:
  5575 ;;		_sprintf
  5576 ;; This function uses a non-reentrant model
  5577 ;;
  5578                           
  5579                           
  5580                           ;psect for function ___lwdiv
  5581  0952                     ___lwdiv:	
  5582                           
  5583                           ;incstack = 0
  5584                           ; Regs used in ___lwdiv: [wreg+status,2+status,0]
  5585  0952  01F5               	clrf	___lwdiv@quotient
  5586  0953  01F6               	clrf	___lwdiv@quotient+1
  5587  0954  0871               	movf	___lwdiv@divisor+1,w
  5588  0955  0470               	iorwf	___lwdiv@divisor,w
  5589  0956  1903               	skipnz
  5590  0957  2989               	goto	l1948
  5591  0958  01F7               	clrf	___lwdiv@counter
  5592  0959  0AF7               	incf	___lwdiv@counter,f
  5593  095A                     l1936:	
  5594  095A  1BF1               	btfsc	___lwdiv@divisor+1,7
  5595  095B  2968               	goto	l1938
  5596  095C  3001               	movlw	1
  5597  095D                     u2205:	
  5598  095D  1003               	clrc
  5599  095E  0DF0               	rlf	___lwdiv@divisor,f
  5600  095F  0DF1               	rlf	___lwdiv@divisor+1,f
  5601  0960  3EFF               	addlw	-1
  5602  0961  1D03               	skipz
  5603  0962  295D               	goto	u2205
  5604  0963  3001               	movlw	1
  5605  0964  00F4               	movwf	??___lwdiv
  5606  0965  0874               	movf	??___lwdiv,w
  5607  0966  07F7               	addwf	___lwdiv@counter,f
  5608  0967  295A               	goto	l1936
  5609  0968                     l1938:	
  5610  0968  3001               	movlw	1
  5611  0969                     u2225:	
  5612  0969  1003               	clrc
  5613  096A  0DF5               	rlf	___lwdiv@quotient,f
  5614  096B  0DF6               	rlf	___lwdiv@quotient+1,f
  5615  096C  3EFF               	addlw	-1
  5616  096D  1D03               	skipz
  5617  096E  2969               	goto	u2225
  5618  096F  0871               	movf	___lwdiv@divisor+1,w
  5619  0970  0273               	subwf	___lwdiv@dividend+1,w
  5620  0971  1D03               	skipz
  5621  0972  2975               	goto	u2235
  5622  0973  0870               	movf	___lwdiv@divisor,w
  5623  0974  0272               	subwf	___lwdiv@dividend,w
  5624  0975                     u2235:	
  5625  0975  1C03               	skipc
  5626  0976  297E               	goto	l1944
  5627  0977  0870               	movf	___lwdiv@divisor,w
  5628  0978  02F2               	subwf	___lwdiv@dividend,f
  5629  0979  0871               	movf	___lwdiv@divisor+1,w
  5630  097A  1C03               	skipc
  5631  097B  03F3               	decf	___lwdiv@dividend+1,f
  5632  097C  02F3               	subwf	___lwdiv@dividend+1,f
  5633  097D  1475               	bsf	___lwdiv@quotient,0
  5634  097E                     l1944:	
  5635  097E  3001               	movlw	1
  5636  097F                     u2245:	
  5637  097F  1003               	clrc
  5638  0980  0CF1               	rrf	___lwdiv@divisor+1,f
  5639  0981  0CF0               	rrf	___lwdiv@divisor,f
  5640  0982  3EFF               	addlw	-1
  5641  0983  1D03               	skipz
  5642  0984  297F               	goto	u2245
  5643  0985  3001               	movlw	1
  5644  0986  02F7               	subwf	___lwdiv@counter,f
  5645  0987  1D03               	btfss	3,2
  5646  0988  2968               	goto	l1938
  5647  0989                     l1948:	
  5648  0989  0876               	movf	___lwdiv@quotient+1,w
  5649  098A  01F1               	clrf	?___lwdiv+1
  5650  098B  07F1               	addwf	?___lwdiv+1,f
  5651  098C  0875               	movf	___lwdiv@quotient,w
  5652  098D  01F0               	clrf	?___lwdiv
  5653  098E  07F0               	addwf	?___lwdiv,f
  5654  098F  0008               	return
  5655  0990                     __end_of___lwdiv:	
  5656                           
  5657                           	psect	text26
  5658  0896                     __ptext26:	
  5659 ;; *************** function _instCtrl *****************
  5660 ;; Defined at:
  5661 ;;		line 124 in file "Z:\CPE3201_SANIEL\PracticalActivities\PA7\LE7-3.c"
  5662 ;; Parameters:    Size  Location     Type
  5663 ;;  INST            1    wreg     unsigned char 
  5664 ;; Auto vars:     Size  Location     Type
  5665 ;;  INST            1    3[COMMON] unsigned char 
  5666 ;; Return value:  Size  Location     Type
  5667 ;;		None               void
  5668 ;; Registers used:
  5669 ;;		wreg, status,2, status,0, btemp+1, pclath, cstack
  5670 ;; Tracked objects:
  5671 ;;		On entry : 0/0
  5672 ;;		On exit  : 0/0
  5673 ;;		Unchanged: 0/0
  5674 ;; Data sizes:     COMMON   BANK0   BANK1   BANK3   BANK2
  5675 ;;      Params:         0       0       0       0       0
  5676 ;;      Locals:         1       0       0       0       0
  5677 ;;      Temps:          0       0       0       0       0
  5678 ;;      Totals:         1       0       0       0       0
  5679 ;;Total ram usage:        1 bytes
  5680 ;; Hardware stack levels used:    1
  5681 ;; Hardware stack levels required when called:    1
  5682 ;; This function calls:
  5683 ;;		_delay_ms
  5684 ;; This function is called by:
  5685 ;;		_initLCD
  5686 ;;		_dispRH
  5687 ;;		_dispT
  5688 ;; This function uses a non-reentrant model
  5689 ;;
  5690                           
  5691                           
  5692                           ;psect for function _instCtrl
  5693  0896                     _instCtrl:	
  5694                           
  5695                           ;incstack = 0
  5696                           ; Regs used in _instCtrl: [wreg+status,2+status,0+btemp+1+pclath+cstack]
  5697                           ;instCtrl@INST stored from wreg
  5698  0896  00F3               	movwf	instCtrl@INST
  5699                           
  5700                           ;LE7-3.c: 125: PORTB = INST;
  5701  0897  0873               	movf	instCtrl@INST,w
  5702  0898  1283               	bcf	3,5	;RP0=0, select bank0
  5703  0899  1303               	bcf	3,6	;RP1=0, select bank0
  5704  089A  0086               	movwf	6	;volatile
  5705                           
  5706                           ;LE7-3.c: 126: RD0 = 0;
  5707  089B  1008               	bcf	8,0	;volatile
  5708                           
  5709                           ;LE7-3.c: 127: RD1 = 1;
  5710  089C  1488               	bsf	8,1	;volatile
  5711                           
  5712                           ;LE7-3.c: 128: delay_ms(1);
  5713  089D  3001               	movlw	1
  5714  089E  00F0               	movwf	delay_ms@cnt
  5715  089F  3000               	movlw	0
  5716  08A0  00F1               	movwf	delay_ms@cnt+1
  5717  08A1  120A  158A  207D  120A  158A  	fcall	_delay_ms
  5718                           
  5719                           ;LE7-3.c: 129: RD1 = 0;
  5720  08A6  1283               	bcf	3,5	;RP0=0, select bank0
  5721  08A7  1303               	bcf	3,6	;RP1=0, select bank0
  5722  08A8  1088               	bcf	8,1	;volatile
  5723                           
  5724                           ;LE7-3.c: 130: delay_ms(1);
  5725  08A9  3001               	movlw	1
  5726  08AA  00F0               	movwf	delay_ms@cnt
  5727  08AB  3000               	movlw	0
  5728  08AC  00F1               	movwf	delay_ms@cnt+1
  5729  08AD  120A  158A  207D   	fcall	_delay_ms
  5730  08B0  0008               	return
  5731  08B1                     __end_of_instCtrl:	
  5732                           
  5733                           	psect	text27
  5734  0857                     __ptext27:	
  5735 ;; *************** function _dataCtrl *****************
  5736 ;; Defined at:
  5737 ;;		line 167 in file "Z:\CPE3201_SANIEL\PracticalActivities\PA7\LE7-3.c"
  5738 ;; Parameters:    Size  Location     Type
  5739 ;;  DATA            1    wreg     unsigned char 
  5740 ;; Auto vars:     Size  Location     Type
  5741 ;;  DATA            1    3[COMMON] unsigned char 
  5742 ;; Return value:  Size  Location     Type
  5743 ;;		None               void
  5744 ;; Registers used:
  5745 ;;		wreg, status,2, status,0, btemp+1, pclath, cstack
  5746 ;; Tracked objects:
  5747 ;;		On entry : 0/0
  5748 ;;		On exit  : 0/0
  5749 ;;		Unchanged: 0/0
  5750 ;; Data sizes:     COMMON   BANK0   BANK1   BANK3   BANK2
  5751 ;;      Params:         0       0       0       0       0
  5752 ;;      Locals:         1       0       0       0       0
  5753 ;;      Temps:          0       0       0       0       0
  5754 ;;      Totals:         1       0       0       0       0
  5755 ;;Total ram usage:        1 bytes
  5756 ;; Hardware stack levels used:    1
  5757 ;; Hardware stack levels required when called:    1
  5758 ;; This function calls:
  5759 ;;		_delay_ms
  5760 ;; This function is called by:
  5761 ;;		_initLCD
  5762 ;;		_dispRH
  5763 ;;		_dispT
  5764 ;; This function uses a non-reentrant model
  5765 ;;
  5766                           
  5767                           
  5768                           ;psect for function _dataCtrl
  5769  0857                     _dataCtrl:	
  5770                           
  5771                           ;incstack = 0
  5772                           ; Regs used in _dataCtrl: [wreg+status,2+status,0+btemp+1+pclath+cstack]
  5773                           ;dataCtrl@DATA stored from wreg
  5774  0857  00F3               	movwf	dataCtrl@DATA
  5775                           
  5776                           ;LE7-3.c: 168: PORTB = DATA;
  5777  0858  0873               	movf	dataCtrl@DATA,w
  5778  0859  1283               	bcf	3,5	;RP0=0, select bank0
  5779  085A  1303               	bcf	3,6	;RP1=0, select bank0
  5780  085B  0086               	movwf	6	;volatile
  5781                           
  5782                           ;LE7-3.c: 169: RD0 = 1;
  5783  085C  1408               	bsf	8,0	;volatile
  5784                           
  5785                           ;LE7-3.c: 170: RD1 = 1;
  5786  085D  1488               	bsf	8,1	;volatile
  5787                           
  5788                           ;LE7-3.c: 171: delay_ms(1);
  5789  085E  3001               	movlw	1
  5790  085F  00F0               	movwf	delay_ms@cnt
  5791  0860  3000               	movlw	0
  5792  0861  00F1               	movwf	delay_ms@cnt+1
  5793  0862  120A  158A  207D   	fcall	_delay_ms
  5794                           
  5795                           ;LE7-3.c: 172: RD1 = 0;
  5796  0865  1283               	bcf	3,5	;RP0=0, select bank0
  5797  0866  1303               	bcf	3,6	;RP1=0, select bank0
  5798  0867  1088               	bcf	8,1	;volatile
  5799  0868  0008               	return
  5800  0869                     __end_of_dataCtrl:	
  5801                           
  5802                           	psect	text28
  5803  087D                     __ptext28:	
  5804 ;; *************** function _delay_ms *****************
  5805 ;; Defined at:
  5806 ;;		line 115 in file "Z:\CPE3201_SANIEL\PracticalActivities\PA7\LE7-3.c"
  5807 ;; Parameters:    Size  Location     Type
  5808 ;;  cnt             2    0[COMMON] int 
  5809 ;; Auto vars:     Size  Location     Type
  5810 ;;		None
  5811 ;; Return value:  Size  Location     Type
  5812 ;;		None               void
  5813 ;; Registers used:
  5814 ;;		wreg, btemp+1
  5815 ;; Tracked objects:
  5816 ;;		On entry : 0/0
  5817 ;;		On exit  : 0/0
  5818 ;;		Unchanged: 0/0
  5819 ;; Data sizes:     COMMON   BANK0   BANK1   BANK3   BANK2
  5820 ;;      Params:         2       0       0       0       0
  5821 ;;      Locals:         0       0       0       0       0
  5822 ;;      Temps:          1       0       0       0       0
  5823 ;;      Totals:         3       0       0       0       0
  5824 ;;Total ram usage:        3 bytes
  5825 ;; Hardware stack levels used:    1
  5826 ;; This function calls:
  5827 ;;		Nothing
  5828 ;; This function is called by:
  5829 ;;		_main
  5830 ;;		_instCtrl
  5831 ;;		_initLCD
  5832 ;;		_dataCtrl
  5833 ;; This function uses a non-reentrant model
  5834 ;;
  5835                           
  5836                           
  5837                           ;psect for function _delay_ms
  5838  087D                     _delay_ms:	
  5839  087D                     l1864:	
  5840                           ;LE7-3.c: 116: while(cnt > 0) {
  5841                           
  5842                           ;incstack = 0
  5843                           ; Regs used in _delay_ms: [wreg+btemp+1]
  5844                           
  5845  087D  0871               	movf	delay_ms@cnt+1,w
  5846  087E  3A80               	xorlw	128
  5847  087F  00FF               	movwf	127
  5848  0880  3080               	movlw	128
  5849  0881  027F               	subwf	127,w
  5850  0882  1D03               	skipz
  5851  0883  2886               	goto	u2095
  5852  0884  3001               	movlw	1
  5853  0885  0270               	subwf	delay_ms@cnt,w
  5854  0886                     u2095:	
  5855  0886  1C03               	btfss	3,0
  5856  0887  0008               	return
  5857                           
  5858                           ;LE7-3.c: 117: _delay((unsigned long)((1)*(4000000/4000.0)));
  5859  0888  30F9               	movlw	249
  5860  0889  00F2               	movwf	??_delay_ms
  5861  088A                     u2757:	
  5862  088A  0000               	nop
  5863  088B  0BF2               	decfsz	??_delay_ms,f
  5864  088C  288A               	goto	u2757
  5865  088D  288E               	nop2	;nop
  5866  088E  0000               	nop
  5867                           
  5868                           ;LE7-3.c: 118: cnt--;
  5869  088F  30FF               	movlw	255
  5870  0890  07F0               	addwf	delay_ms@cnt,f
  5871  0891  1803               	skipnc
  5872  0892  0AF1               	incf	delay_ms@cnt+1,f
  5873  0893  30FF               	movlw	255
  5874  0894  07F1               	addwf	delay_ms@cnt+1,f
  5875  0895  287D               	goto	l1864
  5876  0896                     __end_of_delay_ms:	
  5877                           
  5878                           	psect	text29
  5879  0869                     __ptext29:	
  5880 ;; *************** function ___lwtoft *****************
  5881 ;; Defined at:
  5882 ;;		line 28 in file "C:\Program Files (x86)\Microchip\xc8\v1.33\sources\common\lwtoft.c"
  5883 ;; Parameters:    Size  Location     Type
  5884 ;;  c               2    8[COMMON] unsigned int 
  5885 ;; Auto vars:     Size  Location     Type
  5886 ;;		None
  5887 ;; Return value:  Size  Location     Type
  5888 ;;                  3    8[COMMON] float 
  5889 ;; Registers used:
  5890 ;;		wreg, status,2, status,0, pclath, cstack
  5891 ;; Tracked objects:
  5892 ;;		On entry : 0/0
  5893 ;;		On exit  : 0/0
  5894 ;;		Unchanged: 0/0
  5895 ;; Data sizes:     COMMON   BANK0   BANK1   BANK3   BANK2
  5896 ;;      Params:         3       0       0       0       0
  5897 ;;      Locals:         0       0       0       0       0
  5898 ;;      Temps:          1       0       0       0       0
  5899 ;;      Totals:         4       0       0       0       0
  5900 ;;Total ram usage:        4 bytes
  5901 ;; Hardware stack levels used:    1
  5902 ;; Hardware stack levels required when called:    1
  5903 ;; This function calls:
  5904 ;;		___ftpack
  5905 ;; This function is called by:
  5906 ;;		_main
  5907 ;; This function uses a non-reentrant model
  5908 ;;
  5909                           
  5910                           
  5911                           ;psect for function ___lwtoft
  5912  0869                     ___lwtoft:	
  5913                           
  5914                           ;incstack = 0
  5915                           ; Regs used in ___lwtoft: [wreg+status,2+status,0+pclath+cstack]
  5916  0869  0878               	movf	___lwtoft@c,w
  5917  086A  00F0               	movwf	___ftpack@arg
  5918  086B  0879               	movf	___lwtoft@c+1,w
  5919  086C  00F1               	movwf	___ftpack@arg+1
  5920  086D  01F2               	clrf	___ftpack@arg+2
  5921  086E  308E               	movlw	142
  5922  086F  00FB               	movwf	??___lwtoft
  5923  0870  087B               	movf	??___lwtoft,w
  5924  0871  00F3               	movwf	___ftpack@exp
  5925  0872  01F4               	clrf	___ftpack@sign
  5926  0873  120A  158A  2324   	fcall	___ftpack
  5927  0876  0870               	movf	?___ftpack,w
  5928  0877  00F8               	movwf	?___lwtoft
  5929  0878  0871               	movf	?___ftpack+1,w
  5930  0879  00F9               	movwf	?___lwtoft+1
  5931  087A  0872               	movf	?___ftpack+2,w
  5932  087B  00FA               	movwf	?___lwtoft+2
  5933  087C  0008               	return
  5934  087D                     __end_of___lwtoft:	
  5935                           
  5936                           	psect	text30
  5937  0B24                     __ptext30:	
  5938 ;; *************** function ___ftpack *****************
  5939 ;; Defined at:
  5940 ;;		line 62 in file "C:\Program Files (x86)\Microchip\xc8\v1.33\sources\common\float.c"
  5941 ;; Parameters:    Size  Location     Type
  5942 ;;  arg             3    0[COMMON] unsigned um
  5943 ;;  exp             1    3[COMMON] unsigned char 
  5944 ;;  sign            1    4[COMMON] unsigned char 
  5945 ;; Auto vars:     Size  Location     Type
  5946 ;;		None
  5947 ;; Return value:  Size  Location     Type
  5948 ;;                  3    0[COMMON] float 
  5949 ;; Registers used:
  5950 ;;		wreg, status,2, status,0
  5951 ;; Tracked objects:
  5952 ;;		On entry : 0/0
  5953 ;;		On exit  : 0/0
  5954 ;;		Unchanged: 0/0
  5955 ;; Data sizes:     COMMON   BANK0   BANK1   BANK3   BANK2
  5956 ;;      Params:         5       0       0       0       0
  5957 ;;      Locals:         0       0       0       0       0
  5958 ;;      Temps:          3       0       0       0       0
  5959 ;;      Totals:         8       0       0       0       0
  5960 ;;Total ram usage:        8 bytes
  5961 ;; Hardware stack levels used:    1
  5962 ;; This function calls:
  5963 ;;		Nothing
  5964 ;; This function is called by:
  5965 ;;		___altoft
  5966 ;;		___awtoft
  5967 ;;		___ftadd
  5968 ;;		___ftdiv
  5969 ;;		___ftmul
  5970 ;;		___lltoft
  5971 ;;		___lwtoft
  5972 ;; This function uses a non-reentrant model
  5973 ;;
  5974                           
  5975                           
  5976                           ;psect for function ___ftpack
  5977  0B24                     ___ftpack:	
  5978                           
  5979                           ;incstack = 0
  5980                           ; Regs used in ___ftpack: [wreg+status,2+status,0]
  5981  0B24  0873               	movf	___ftpack@exp,w
  5982  0B25  1903               	btfsc	3,2
  5983  0B26  2B2C               	goto	l1588
  5984  0B27  0872               	movf	___ftpack@arg+2,w
  5985  0B28  0471               	iorwf	___ftpack@arg+1,w
  5986  0B29  0470               	iorwf	___ftpack@arg,w
  5987  0B2A  1D03               	skipz
  5988  0B2B  2B3F               	goto	l1594
  5989  0B2C                     l1588:	
  5990  0B2C  3000               	movlw	0
  5991  0B2D  00F0               	movwf	?___ftpack
  5992  0B2E  3000               	movlw	0
  5993  0B2F  00F1               	movwf	?___ftpack+1
  5994  0B30  3000               	movlw	0
  5995  0B31  00F2               	movwf	?___ftpack+2
  5996  0B32  0008               	return
  5997  0B33                     l1592:	
  5998  0B33  3001               	movlw	1
  5999  0B34  00F5               	movwf	??___ftpack
  6000  0B35  0875               	movf	??___ftpack,w
  6001  0B36  07F3               	addwf	___ftpack@exp,f
  6002  0B37  3001               	movlw	1
  6003  0B38                     u1405:	
  6004  0B38  1003               	clrc
  6005  0B39  0CF2               	rrf	___ftpack@arg+2,f
  6006  0B3A  0CF1               	rrf	___ftpack@arg+1,f
  6007  0B3B  0CF0               	rrf	___ftpack@arg,f
  6008  0B3C  3EFF               	addlw	-1
  6009  0B3D  1D03               	skipz
  6010  0B3E  2B38               	goto	u1405
  6011  0B3F                     l1594:	
  6012  0B3F  30FE               	movlw	254
  6013  0B40  0572               	andwf	___ftpack@arg+2,w
  6014  0B41  1903               	btfsc	3,2
  6015  0B42  2B5A               	goto	l399
  6016  0B43  2B33               	goto	l1592
  6017  0B44                     l1596:	
  6018  0B44  3001               	movlw	1
  6019  0B45  00F5               	movwf	??___ftpack
  6020  0B46  0875               	movf	??___ftpack,w
  6021  0B47  07F3               	addwf	___ftpack@exp,f
  6022  0B48  3001               	movlw	1
  6023  0B49  07F0               	addwf	___ftpack@arg,f
  6024  0B4A  3000               	movlw	0
  6025  0B4B  1803               	skipnc
  6026  0B4C  3001               	movlw	1
  6027  0B4D  07F1               	addwf	___ftpack@arg+1,f
  6028  0B4E  3000               	movlw	0
  6029  0B4F  1803               	skipnc
  6030  0B50  3001               	movlw	1
  6031  0B51  07F2               	addwf	___ftpack@arg+2,f
  6032  0B52  3001               	movlw	1
  6033  0B53                     u1425:	
  6034  0B53  1003               	clrc
  6035  0B54  0CF2               	rrf	___ftpack@arg+2,f
  6036  0B55  0CF1               	rrf	___ftpack@arg+1,f
  6037  0B56  0CF0               	rrf	___ftpack@arg,f
  6038  0B57  3EFF               	addlw	-1
  6039  0B58  1D03               	skipz
  6040  0B59  2B53               	goto	u1425
  6041  0B5A                     l399:	
  6042  0B5A  30FF               	movlw	255
  6043  0B5B  0572               	andwf	___ftpack@arg+2,w
  6044  0B5C  1903               	btfsc	3,2
  6045  0B5D  2B69               	goto	l1604
  6046  0B5E  2B44               	goto	l1596
  6047  0B5F                     l1602:	
  6048  0B5F  3001               	movlw	1
  6049  0B60  02F3               	subwf	___ftpack@exp,f
  6050  0B61  3001               	movlw	1
  6051  0B62                     u1445:	
  6052  0B62  1003               	clrc
  6053  0B63  0DF0               	rlf	___ftpack@arg,f
  6054  0B64  0DF1               	rlf	___ftpack@arg+1,f
  6055  0B65  0DF2               	rlf	___ftpack@arg+2,f
  6056  0B66  3EFF               	addlw	-1
  6057  0B67  1D03               	skipz
  6058  0B68  2B62               	goto	u1445
  6059  0B69                     l1604:	
  6060  0B69  1FF1               	btfss	___ftpack@arg+1,7
  6061  0B6A  2B5F               	goto	l1602
  6062  0B6B  1873               	btfsc	___ftpack@exp,0
  6063  0B6C  2B73               	goto	l405
  6064  0B6D  30FF               	movlw	255
  6065  0B6E  05F0               	andwf	___ftpack@arg,f
  6066  0B6F  307F               	movlw	127
  6067  0B70  05F1               	andwf	___ftpack@arg+1,f
  6068  0B71  30FF               	movlw	255
  6069  0B72  05F2               	andwf	___ftpack@arg+2,f
  6070  0B73                     l405:	
  6071  0B73  1003               	clrc
  6072  0B74  0CF3               	rrf	___ftpack@exp,f
  6073  0B75  0873               	movf	___ftpack@exp,w
  6074  0B76  00F5               	movwf	??___ftpack
  6075  0B77  01F6               	clrf	??___ftpack+1
  6076  0B78  01F7               	clrf	??___ftpack+2
  6077  0B79  3010               	movlw	16
  6078  0B7A                     u1475:	
  6079  0B7A  1003               	clrc
  6080  0B7B  0DF5               	rlf	??___ftpack,f
  6081  0B7C  0DF6               	rlf	??___ftpack+1,f
  6082  0B7D  0DF7               	rlf	??___ftpack+2,f
  6083  0B7E  3EFF               	addlw	-1
  6084  0B7F  1D03               	skipz
  6085  0B80  2B7A               	goto	u1475
  6086  0B81  0875               	movf	??___ftpack,w
  6087  0B82  04F0               	iorwf	___ftpack@arg,f
  6088  0B83  0876               	movf	??___ftpack+1,w
  6089  0B84  04F1               	iorwf	___ftpack@arg+1,f
  6090  0B85  0877               	movf	??___ftpack+2,w
  6091  0B86  04F2               	iorwf	___ftpack@arg+2,f
  6092  0B87  0874               	movf	___ftpack@sign,w
  6093  0B88  1903               	btfsc	3,2
  6094  0B89  0008               	return
  6095  0B8A  17F2               	bsf	___ftpack@arg+2,7
  6096  0B8B  0008               	return
  6097  0B8C                     __end_of___ftpack:	
  6098                           
  6099                           	psect	text31
  6100  17C9                     __ptext31:	
  6101 ;; *************** function _I2C_Stop *****************
  6102 ;; Defined at:
  6103 ;;		line 236 in file "Z:\CPE3201_SANIEL\PracticalActivities\PA7\LE7-3.c"
  6104 ;; Parameters:    Size  Location     Type
  6105 ;;		None
  6106 ;; Auto vars:     Size  Location     Type
  6107 ;;		None
  6108 ;; Return value:  Size  Location     Type
  6109 ;;		None               void
  6110 ;; Registers used:
  6111 ;;		wreg, status,2, status,0, pclath, cstack
  6112 ;; Tracked objects:
  6113 ;;		On entry : 0/0
  6114 ;;		On exit  : 0/0
  6115 ;;		Unchanged: 0/0
  6116 ;; Data sizes:     COMMON   BANK0   BANK1   BANK3   BANK2
  6117 ;;      Params:         0       0       0       0       0
  6118 ;;      Locals:         0       0       0       0       0
  6119 ;;      Temps:          0       0       0       0       0
  6120 ;;      Totals:         0       0       0       0       0
  6121 ;;Total ram usage:        0 bytes
  6122 ;; Hardware stack levels used:    1
  6123 ;; Hardware stack levels required when called:    1
  6124 ;; This function calls:
  6125 ;;		_I2C_Wait
  6126 ;; This function is called by:
  6127 ;;		_main
  6128 ;; This function uses a non-reentrant model
  6129 ;;
  6130                           
  6131                           
  6132                           ;psect for function _I2C_Stop
  6133  17C9                     _I2C_Stop:	
  6134                           
  6135                           ;LE7-3.c: 238: I2C_Wait();
  6136                           
  6137                           ;incstack = 0
  6138                           ; Regs used in _I2C_Stop: [wreg+status,2+status,0+pclath+cstack]
  6139  17C9  160A  118A  27D0   	fcall	_I2C_Wait
  6140                           
  6141                           ;LE7-3.c: 240: PEN = 1;
  6142  17CC  1683               	bsf	3,5	;RP0=1, select bank1
  6143  17CD  1303               	bcf	3,6	;RP1=0, select bank1
  6144  17CE  1511               	bsf	17,2	;volatile
  6145  17CF  0008               	return
  6146  17D0                     __end_of_I2C_Stop:	
  6147                           
  6148                           	psect	text32
  6149  17C2                     __ptext32:	
  6150 ;; *************** function _I2C_Start *****************
  6151 ;; Defined at:
  6152 ;;		line 229 in file "Z:\CPE3201_SANIEL\PracticalActivities\PA7\LE7-3.c"
  6153 ;; Parameters:    Size  Location     Type
  6154 ;;		None
  6155 ;; Auto vars:     Size  Location     Type
  6156 ;;		None
  6157 ;; Return value:  Size  Location     Type
  6158 ;;		None               void
  6159 ;; Registers used:
  6160 ;;		wreg, status,2, status,0, pclath, cstack
  6161 ;; Tracked objects:
  6162 ;;		On entry : 0/0
  6163 ;;		On exit  : 0/0
  6164 ;;		Unchanged: 0/0
  6165 ;; Data sizes:     COMMON   BANK0   BANK1   BANK3   BANK2
  6166 ;;      Params:         0       0       0       0       0
  6167 ;;      Locals:         0       0       0       0       0
  6168 ;;      Temps:          0       0       0       0       0
  6169 ;;      Totals:         0       0       0       0       0
  6170 ;;Total ram usage:        0 bytes
  6171 ;; Hardware stack levels used:    1
  6172 ;; Hardware stack levels required when called:    1
  6173 ;; This function calls:
  6174 ;;		_I2C_Wait
  6175 ;; This function is called by:
  6176 ;;		_main
  6177 ;; This function uses a non-reentrant model
  6178 ;;
  6179                           
  6180                           
  6181                           ;psect for function _I2C_Start
  6182  17C2                     _I2C_Start:	
  6183                           
  6184                           ;LE7-3.c: 231: I2C_Wait();
  6185                           
  6186                           ;incstack = 0
  6187                           ; Regs used in _I2C_Start: [wreg+status,2+status,0+pclath+cstack]
  6188  17C2  160A  118A  27D0   	fcall	_I2C_Wait
  6189                           
  6190                           ;LE7-3.c: 233: SEN = 1;
  6191  17C5  1683               	bsf	3,5	;RP0=1, select bank1
  6192  17C6  1303               	bcf	3,6	;RP1=0, select bank1
  6193  17C7  1411               	bsf	17,0	;volatile
  6194  17C8  0008               	return
  6195  17C9                     __end_of_I2C_Start:	
  6196                           
  6197                           	psect	text33
  6198  084E                     __ptext33:	
  6199 ;; *************** function _I2C_Send *****************
  6200 ;; Defined at:
  6201 ;;		line 250 in file "Z:\CPE3201_SANIEL\PracticalActivities\PA7\LE7-3.c"
  6202 ;; Parameters:    Size  Location     Type
  6203 ;;  data            1    wreg     unsigned char 
  6204 ;; Auto vars:     Size  Location     Type
  6205 ;;  data            1    0[COMMON] unsigned char 
  6206 ;; Return value:  Size  Location     Type
  6207 ;;		None               void
  6208 ;; Registers used:
  6209 ;;		wreg, status,2, status,0, pclath, cstack
  6210 ;; Tracked objects:
  6211 ;;		On entry : 0/0
  6212 ;;		On exit  : 0/0
  6213 ;;		Unchanged: 0/0
  6214 ;; Data sizes:     COMMON   BANK0   BANK1   BANK3   BANK2
  6215 ;;      Params:         0       0       0       0       0
  6216 ;;      Locals:         1       0       0       0       0
  6217 ;;      Temps:          0       0       0       0       0
  6218 ;;      Totals:         1       0       0       0       0
  6219 ;;Total ram usage:        1 bytes
  6220 ;; Hardware stack levels used:    1
  6221 ;; Hardware stack levels required when called:    1
  6222 ;; This function calls:
  6223 ;;		_I2C_Wait
  6224 ;; This function is called by:
  6225 ;;		_main
  6226 ;; This function uses a non-reentrant model
  6227 ;;
  6228                           
  6229                           
  6230                           ;psect for function _I2C_Send
  6231  084E                     _I2C_Send:	
  6232                           
  6233                           ;incstack = 0
  6234                           ; Regs used in _I2C_Send: [wreg+status,2+status,0+pclath+cstack]
  6235                           ;I2C_Send@data stored from wreg
  6236  084E  00F0               	movwf	I2C_Send@data
  6237                           
  6238                           ;LE7-3.c: 252: I2C_Wait();
  6239  084F  160A  118A  27D0   	fcall	_I2C_Wait
  6240                           
  6241                           ;LE7-3.c: 254: SSPBUF = data;
  6242  0852  0870               	movf	I2C_Send@data,w
  6243  0853  1283               	bcf	3,5	;RP0=0, select bank0
  6244  0854  1303               	bcf	3,6	;RP1=0, select bank0
  6245  0855  0093               	movwf	19	;volatile
  6246  0856  0008               	return
  6247  0857                     __end_of_I2C_Send:	
  6248                           
  6249                           	psect	text34
  6250  17BB                     __ptext34:	
  6251 ;; *************** function _I2C_RepeatedStart *****************
  6252 ;; Defined at:
  6253 ;;		line 243 in file "Z:\CPE3201_SANIEL\PracticalActivities\PA7\LE7-3.c"
  6254 ;; Parameters:    Size  Location     Type
  6255 ;;		None
  6256 ;; Auto vars:     Size  Location     Type
  6257 ;;		None
  6258 ;; Return value:  Size  Location     Type
  6259 ;;		None               void
  6260 ;; Registers used:
  6261 ;;		wreg, status,2, status,0, pclath, cstack
  6262 ;; Tracked objects:
  6263 ;;		On entry : 0/0
  6264 ;;		On exit  : 0/0
  6265 ;;		Unchanged: 0/0
  6266 ;; Data sizes:     COMMON   BANK0   BANK1   BANK3   BANK2
  6267 ;;      Params:         0       0       0       0       0
  6268 ;;      Locals:         0       0       0       0       0
  6269 ;;      Temps:          0       0       0       0       0
  6270 ;;      Totals:         0       0       0       0       0
  6271 ;;Total ram usage:        0 bytes
  6272 ;; Hardware stack levels used:    1
  6273 ;; Hardware stack levels required when called:    1
  6274 ;; This function calls:
  6275 ;;		_I2C_Wait
  6276 ;; This function is called by:
  6277 ;;		_main
  6278 ;; This function uses a non-reentrant model
  6279 ;;
  6280                           
  6281                           
  6282                           ;psect for function _I2C_RepeatedStart
  6283  17BB                     _I2C_RepeatedStart:	
  6284                           
  6285                           ;LE7-3.c: 245: I2C_Wait();
  6286                           
  6287                           ;incstack = 0
  6288                           ; Regs used in _I2C_RepeatedStart: [wreg+status,2+status,0+pclath+cstack]
  6289  17BB  160A  118A  27D0   	fcall	_I2C_Wait
  6290                           
  6291                           ;LE7-3.c: 247: RSEN = 1;
  6292  17BE  1683               	bsf	3,5	;RP0=1, select bank1
  6293  17BF  1303               	bcf	3,6	;RP1=0, select bank1
  6294  17C0  1491               	bsf	17,1	;volatile
  6295  17C1  0008               	return
  6296  17C2                     __end_of_I2C_RepeatedStart:	
  6297                           
  6298                           	psect	text35
  6299  08CD                     __ptext35:	
  6300 ;; *************** function _I2C_Receive *****************
  6301 ;; Defined at:
  6302 ;;		line 257 in file "Z:\CPE3201_SANIEL\PracticalActivities\PA7\LE7-3.c"
  6303 ;; Parameters:    Size  Location     Type
  6304 ;;  ack             1    wreg     unsigned char 
  6305 ;; Auto vars:     Size  Location     Type
  6306 ;;  ack             1    1[COMMON] unsigned char 
  6307 ;;  temp            1    2[COMMON] unsigned char 
  6308 ;; Return value:  Size  Location     Type
  6309 ;;                  1    wreg      unsigned char 
  6310 ;; Registers used:
  6311 ;;		wreg, status,2, status,0, pclath, cstack
  6312 ;; Tracked objects:
  6313 ;;		On entry : 0/0
  6314 ;;		On exit  : 0/0
  6315 ;;		Unchanged: 0/0
  6316 ;; Data sizes:     COMMON   BANK0   BANK1   BANK3   BANK2
  6317 ;;      Params:         0       0       0       0       0
  6318 ;;      Locals:         2       0       0       0       0
  6319 ;;      Temps:          1       0       0       0       0
  6320 ;;      Totals:         3       0       0       0       0
  6321 ;;Total ram usage:        3 bytes
  6322 ;; Hardware stack levels used:    1
  6323 ;; Hardware stack levels required when called:    1
  6324 ;; This function calls:
  6325 ;;		_I2C_Wait
  6326 ;; This function is called by:
  6327 ;;		_main
  6328 ;; This function uses a non-reentrant model
  6329 ;;
  6330                           
  6331                           
  6332                           ;psect for function _I2C_Receive
  6333  08CD                     _I2C_Receive:	
  6334                           
  6335                           ;incstack = 0
  6336                           ; Regs used in _I2C_Receive: [wreg+status,2+status,0+pclath+cstack]
  6337                           ;I2C_Receive@ack stored from wreg
  6338  08CD  00F1               	movwf	I2C_Receive@ack
  6339                           
  6340                           ;LE7-3.c: 258: unsigned char temp;
  6341                           ;LE7-3.c: 259: I2C_Wait();
  6342  08CE  160A  118A  27D0  120A  158A  	fcall	_I2C_Wait
  6343                           
  6344                           ;LE7-3.c: 260: RCEN = 1;
  6345  08D3  1683               	bsf	3,5	;RP0=1, select bank1
  6346  08D4  1303               	bcf	3,6	;RP1=0, select bank1
  6347  08D5  1591               	bsf	17,3	;volatile
  6348                           
  6349                           ;LE7-3.c: 261: I2C_Wait();
  6350  08D6  160A  118A  27D0  120A  158A  	fcall	_I2C_Wait
  6351                           
  6352                           ;LE7-3.c: 262: temp = SSPBUF;
  6353  08DB  1283               	bcf	3,5	;RP0=0, select bank0
  6354  08DC  1303               	bcf	3,6	;RP1=0, select bank0
  6355  08DD  0813               	movf	19,w	;volatile
  6356  08DE  00F0               	movwf	??_I2C_Receive
  6357  08DF  0870               	movf	??_I2C_Receive,w
  6358  08E0  00F2               	movwf	I2C_Receive@temp
  6359                           
  6360                           ;LE7-3.c: 263: I2C_Wait();
  6361  08E1  160A  118A  27D0  120A  158A  	fcall	_I2C_Wait
  6362                           
  6363                           ;LE7-3.c: 264: ACKDT = (ack)?0:1;
  6364  08E6  08F1               	movf	I2C_Receive@ack,f
  6365  08E7  1D03               	btfss	3,2
  6366  08E8  28ED               	goto	u2670
  6367  08E9  1683               	bsf	3,5	;RP0=1, select bank1
  6368  08EA  1303               	bcf	3,6	;RP1=0, select bank1
  6369  08EB  1691               	bsf	17,5	;volatile
  6370  08EC  28F0               	goto	l2302
  6371  08ED                     u2670:	
  6372  08ED  1683               	bsf	3,5	;RP0=1, select bank1
  6373  08EE  1303               	bcf	3,6	;RP1=0, select bank1
  6374  08EF  1291               	bcf	17,5	;volatile
  6375  08F0                     l2302:	
  6376                           
  6377                           ;LE7-3.c: 265: ACKEN = 1;
  6378  08F0  1611               	bsf	17,4	;volatile
  6379                           
  6380                           ;LE7-3.c: 266: return temp;
  6381  08F1  0872               	movf	I2C_Receive@temp,w
  6382  08F2  0008               	return
  6383  08F3                     __end_of_I2C_Receive:	
  6384                           
  6385                           	psect	text36
  6386  17D0                     __ptext36:	
  6387 ;; *************** function _I2C_Wait *****************
  6388 ;; Defined at:
  6389 ;;		line 223 in file "Z:\CPE3201_SANIEL\PracticalActivities\PA7\LE7-3.c"
  6390 ;; Parameters:    Size  Location     Type
  6391 ;;		None
  6392 ;; Auto vars:     Size  Location     Type
  6393 ;;		None
  6394 ;; Return value:  Size  Location     Type
  6395 ;;		None               void
  6396 ;; Registers used:
  6397 ;;		wreg, status,2
  6398 ;; Tracked objects:
  6399 ;;		On entry : 0/0
  6400 ;;		On exit  : 0/0
  6401 ;;		Unchanged: 0/0
  6402 ;; Data sizes:     COMMON   BANK0   BANK1   BANK3   BANK2
  6403 ;;      Params:         0       0       0       0       0
  6404 ;;      Locals:         0       0       0       0       0
  6405 ;;      Temps:          0       0       0       0       0
  6406 ;;      Totals:         0       0       0       0       0
  6407 ;;Total ram usage:        0 bytes
  6408 ;; Hardware stack levels used:    1
  6409 ;; This function calls:
  6410 ;;		Nothing
  6411 ;; This function is called by:
  6412 ;;		_I2C_Start
  6413 ;;		_I2C_Stop
  6414 ;;		_I2C_RepeatedStart
  6415 ;;		_I2C_Send
  6416 ;;		_I2C_Receive
  6417 ;; This function uses a non-reentrant model
  6418 ;;
  6419                           
  6420                           
  6421                           ;psect for function _I2C_Wait
  6422  17D0                     _I2C_Wait:	
  6423  17D0                     l2140:	
  6424                           ;LE7-3.c: 226: while((SSPCON2 & 0x1F) || (SSPSTAT & 0x04));
  6425                           
  6426                           ;incstack = 0
  6427                           ; Regs used in _I2C_Wait: [wreg+status,2]
  6428                           
  6429  17D0  1683               	bsf	3,5	;RP0=1, select bank1
  6430  17D1  1303               	bcf	3,6	;RP1=0, select bank1
  6431  17D2  0811               	movf	17,w	;volatile
  6432  17D3  391F               	andlw	31
  6433  17D4  1903               	btfsc	3,2
  6434  17D5  1914               	btfsc	20,2	;volatile
  6435  17D6  2FD0               	goto	l2140
  6436  17D7  0008               	return
  6437  17D8                     __end_of_I2C_Wait:	
  6438  007E                     btemp	set	126	;btemp
  6439  007E                     wtemp	set	126
  6440  007E                     wtemp0	set	126
  6441  0080                     wtemp1	set	128
  6442  0082                     wtemp2	set	130
  6443  0084                     wtemp3	set	132
  6444  0086                     wtemp4	set	134
  6445  0088                     wtemp5	set	136
  6446  007F                     wtemp6	set	127
  6447  007E                     ttemp	set	126
  6448  007E                     ttemp0	set	126
  6449  0081                     ttemp1	set	129
  6450  0084                     ttemp2	set	132
  6451  0087                     ttemp3	set	135
  6452  007F                     ttemp4	set	127
  6453  007E                     ltemp	set	126
  6454  007E                     ltemp0	set	126
  6455  0082                     ltemp1	set	130
  6456  0086                     ltemp2	set	134
  6457  0080                     ltemp3	set	128


Data Sizes:
    Strings     3
    Constant    67
    Data        0
    BSS         7
    Persistent  0
    Stack       0

Auto Spaces:
    Space          Size  Autos    Used
    COMMON           14     14      14
    BANK0            80     80      80
    BANK1            80     39      46
    BANK3            96      0       0
    BANK2            96      0       0

Pointer List with Targets:

    eval_poly@d	PTR const  size(1) Largest target is 30
		 -> log@coeff(CODE[27]), exp@coeff(CODE[30]), 

    frexp@eptr	PTR int  size(1) Largest target is 2
		 -> log@exponent(BANK0[2]), floor@expon(BANK0[2]), 

    sprintf@f	PTR const unsigned char  size(1) Largest target is 3
		 -> STR_2(CODE[3]), STR_1(CODE[3]), 

    sprintf@sp	PTR unsigned char  size(1) Largest target is 10
		 -> dispT@val(BANK1[10]), dispRH@val(BANK1[10]), 

    sprintf@ap	PTR void [1] size(1) Largest target is 2
		 -> ?_sprintf(BANK0[2]), 

    S155$_cp	PTR const unsigned char  size(1) Largest target is 0

    _val._str._cp	PTR const unsigned char  size(1) Largest target is 0


Critical Paths under _main in COMMON

    _main->___awtoft
    _pow->___lltoft
    _log->___awtoft
    _exp->___awtoft
    ___ftmul->___awtoft
    ___ftsub->___awtoft
    ___ftadd->___awtoft
    ___ftdiv->___awtoft
    ___awtoft->___ftpack
    ___lltoft->___ftpack
    _initLCD->_dataCtrl
    _initLCD->_instCtrl
    ___fttol->___awtoft
    _sprintf->___lwmod
    ___lwmod->___lwdiv
    _instCtrl->_delay_ms
    _dataCtrl->_delay_ms
    ___lwtoft->___ftpack

Critical Paths under _main in BANK0

    _pow->_exp
    _log->_eval_poly
    _exp->_floor
    _ldexp->_eval_poly
    _floor->___altoft
    ___altoft->___fttol
    _eval_poly->___ftadd
    ___ftmul->___ftdiv
    ___ftsub->___ftadd
    ___ftadd->___ftmul
    _dispT->_sprintf
    ___fttol->___ftadd
    _dispRH->_sprintf
    _sprintf->___fttol

Critical Paths under _main in BANK1

    _main->_pow
    _pow->_exp

Critical Paths under _main in BANK3

    None.

Critical Paths under _main in BANK2

    None.

Call Graph Tables:

 ---------------------------------------------------------------------------------
 (Depth) Function   	        Calls       Base Space   Used Autos Params    Refs
 ---------------------------------------------------------------------------------
 (0) _main                                                12    12      0   75320
                                             27 BANK1     12    12      0
                        _I2C_Receive
                  _I2C_RepeatedStart
                           _I2C_Send
                          _I2C_Start
                           _I2C_Stop
                           ___awtoft
                            ___ftadd
                            ___ftdiv
                            ___ftmul
                            ___fttol
                           ___lwtoft
                           _delay_ms
                             _dispRH
                              _dispT
                            _initLCD
                    _init_I2C_Master
                                _pow
 ---------------------------------------------------------------------------------
 (1) _pow                                                 18    12      6   54326
                                              9 BANK1     18    12      6
                             ___ftge
                            ___ftmul
                            ___ftneg
                            ___fttol
                           ___lltoft
                                _exp
                                _log
 ---------------------------------------------------------------------------------
 (2) _log                                                  6     3      3   17213
                                             55 BANK0      6     3      3
                           ___awtoft
                            ___ftadd
                             ___ftge
                            ___ftmul
                          _eval_poly
                              _frexp
 ---------------------------------------------------------------------------------
 (2) _exp                                                 13    10      3   29857
                                             76 BANK0      4     1      3
                                              0 BANK1      9     9      0
                           ___awtoft
                            ___ftdiv
                             ___ftge
                            ___ftmul
                            ___ftneg
                            ___ftsub
                            ___fttol
                          _eval_poly
                              _floor
                              _ldexp
                                _log (ARG)
 ---------------------------------------------------------------------------------
 (3) _ldexp                                               10     5      5    1725
                                             55 BANK0     10     5      5
                             ___ftge
                            ___ftneg
                          _eval_poly (ARG)
 ---------------------------------------------------------------------------------
 (4) ___ftneg                                              3     0      3     257
                                              0 COMMON     3     0      3
 ---------------------------------------------------------------------------------
 (3) _floor                                                9     6      3    7777
                                             67 BANK0      9     6      3
                           ___altoft
                            ___ftadd
                             ___ftge
                            ___fttol
                              _frexp
 ---------------------------------------------------------------------------------
 (3) _frexp                                                6     2      4     436
                                              0 COMMON     6     2      4
 ---------------------------------------------------------------------------------
 (3) ___ftge                                              12     6      6    1090
                                              0 COMMON    12     6      6
 ---------------------------------------------------------------------------------
 (4) ___altoft                                             8     4      4    1993
                                             59 BANK0      8     4      4
                           ___ftpack
                            ___fttol (ARG)
 ---------------------------------------------------------------------------------
 (3) _eval_poly                                           10     4      6    6990
                                             45 BANK0     10     4      6
                             ___bmul
                            ___ftadd
                            ___ftmul
 ---------------------------------------------------------------------------------
 (4) ___ftmul                                             16    10      6    2950
                                             16 BANK0     16    10      6
                           ___awtoft (ARG)
                            ___ftdiv (ARG)
                           ___ftpack
                           ___lwtoft (ARG)
                              _frexp (ARG)
 ---------------------------------------------------------------------------------
 (4) ___bmul                                               4     3      1     160
                                              0 COMMON     4     3      1
 ---------------------------------------------------------------------------------
 (3) ___ftsub                                              6     0      6    3535
                                             45 BANK0      6     0      6
                           ___awtoft (ARG)
                            ___ftadd
 ---------------------------------------------------------------------------------
 (4) ___ftadd                                             13     7      6    3384
                                             32 BANK0     13     7      6
                           ___awtoft (ARG)
                             ___bmul (ARG)
                            ___ftdiv (ARG)
                            ___ftmul (ARG)
                           ___ftpack
                           ___lwtoft (ARG)
                              _frexp (ARG)
 ---------------------------------------------------------------------------------
 (3) ___ftdiv                                             16    10      6    2400
                                              0 BANK0     16    10      6
                           ___awtoft (ARG)
                           ___ftpack
                           ___lwtoft (ARG)
 ---------------------------------------------------------------------------------
 (3) ___awtoft                                             6     3      3    2105
                                              8 COMMON     6     3      3
                           ___ftpack
 ---------------------------------------------------------------------------------
 (2) ___lltoft                                             6     2      4    1924
                                              8 COMMON     6     2      4
                           ___ftpack
 ---------------------------------------------------------------------------------
 (1) _init_I2C_Master                                      0     0      0       0
 ---------------------------------------------------------------------------------
 (1) _initLCD                                              0     0      0    1544
                           _dataCtrl
                           _delay_ms
                           _instCtrl
 ---------------------------------------------------------------------------------
 (1) _dispT                                               13    13      0    2906
                                             74 BANK0      1     1      0
                                              0 BANK1     12    12      0
                            ___fttol
                           _dataCtrl
                           _instCtrl
                            _sprintf
 ---------------------------------------------------------------------------------
 (4) ___fttol                                             14    10      4     570
                                             45 BANK0     14    10      4
                           ___awtoft (ARG)
                            ___ftadd (ARG)
                            ___ftdiv (ARG)
                            ___ftmul (ARG)
                           ___lwtoft (ARG)
 ---------------------------------------------------------------------------------
 (1) _dispRH                                              13    13      0    2336
                                             74 BANK0      1     1      0
                                              0 BANK1     12    12      0
                           _dataCtrl
                           _instCtrl
                            _sprintf
 ---------------------------------------------------------------------------------
 (2) _sprintf                                             15    12      3    1170
                                             59 BANK0     15    12      3
                            ___fttol (ARG)
                            ___lwdiv
                            ___lwmod
 ---------------------------------------------------------------------------------
 (3) ___lwmod                                              6     2      4     265
                                              8 COMMON     6     2      4
                            ___lwdiv (ARG)
 ---------------------------------------------------------------------------------
 (3) ___lwdiv                                              8     4      4     268
                                              0 COMMON     8     4      4
 ---------------------------------------------------------------------------------
 (2) _instCtrl                                             1     1      0     522
                                              3 COMMON     1     1      0
                           _delay_ms
 ---------------------------------------------------------------------------------
 (2) _dataCtrl                                             1     1      0     522
                                              3 COMMON     1     1      0
                           _delay_ms
 ---------------------------------------------------------------------------------
 (3) _delay_ms                                             3     1      2     500
                                              0 COMMON     3     1      2
 ---------------------------------------------------------------------------------
 (1) ___lwtoft                                             4     1      3    1930
                                              8 COMMON     4     1      3
                           ___ftpack
 ---------------------------------------------------------------------------------
 (5) ___ftpack                                             8     3      5    1802
                                              0 COMMON     8     3      5
 ---------------------------------------------------------------------------------
 (1) _I2C_Stop                                             0     0      0       0
                           _I2C_Wait
 ---------------------------------------------------------------------------------
 (1) _I2C_Start                                            0     0      0       0
                           _I2C_Wait
 ---------------------------------------------------------------------------------
 (1) _I2C_Send                                             1     1      0      22
                                              0 COMMON     1     1      0
                           _I2C_Wait
 ---------------------------------------------------------------------------------
 (1) _I2C_RepeatedStart                                    0     0      0       0
                           _I2C_Wait
 ---------------------------------------------------------------------------------
 (1) _I2C_Receive                                          3     3      0      45
                                              0 COMMON     3     3      0
                           _I2C_Wait
 ---------------------------------------------------------------------------------
 (2) _I2C_Wait                                             0     0      0       0
 ---------------------------------------------------------------------------------
 Estimated maximum stack depth 5
 ---------------------------------------------------------------------------------

 Call Graph Graphs:

 _main (ROOT)
   _I2C_Receive
     _I2C_Wait
   _I2C_RepeatedStart
     _I2C_Wait
   _I2C_Send
     _I2C_Wait
   _I2C_Start
     _I2C_Wait
   _I2C_Stop
     _I2C_Wait
   ___awtoft
     ___ftpack
   ___ftadd
     ___awtoft (ARG)
       ___ftpack
     ___bmul (ARG)
     ___ftdiv (ARG)
       ___awtoft (ARG)
         ___ftpack
       ___ftpack (ARG)
       ___lwtoft (ARG)
         ___ftpack
     ___ftmul (ARG)
       ___awtoft (ARG)
         ___ftpack
       ___ftdiv (ARG)
         ___awtoft (ARG)
           ___ftpack
         ___ftpack (ARG)
         ___lwtoft (ARG)
           ___ftpack
       ___ftpack (ARG)
       ___lwtoft (ARG)
         ___ftpack
       _frexp (ARG)
     ___ftpack (ARG)
     ___lwtoft (ARG)
       ___ftpack
     _frexp (ARG)
   ___ftdiv
     ___awtoft (ARG)
       ___ftpack
     ___ftpack (ARG)
     ___lwtoft (ARG)
       ___ftpack
   ___ftmul
     ___awtoft (ARG)
       ___ftpack
     ___ftdiv (ARG)
       ___awtoft (ARG)
         ___ftpack
       ___ftpack (ARG)
       ___lwtoft (ARG)
         ___ftpack
     ___ftpack (ARG)
     ___lwtoft (ARG)
       ___ftpack
     _frexp (ARG)
   ___fttol
     ___awtoft (ARG)
       ___ftpack
     ___ftadd (ARG)
       ___awtoft (ARG)
         ___ftpack
       ___bmul (ARG)
       ___ftdiv (ARG)
         ___awtoft (ARG)
           ___ftpack
         ___ftpack (ARG)
         ___lwtoft (ARG)
           ___ftpack
       ___ftmul (ARG)
         ___awtoft (ARG)
           ___ftpack
         ___ftdiv (ARG)
           ___awtoft (ARG)
             ___ftpack
           ___ftpack (ARG)
           ___lwtoft (ARG)
             ___ftpack
         ___ftpack (ARG)
         ___lwtoft (ARG)
           ___ftpack
         _frexp (ARG)
       ___ftpack (ARG)
       ___lwtoft (ARG)
         ___ftpack
       _frexp (ARG)
     ___ftdiv (ARG)
       ___awtoft (ARG)
         ___ftpack
       ___ftpack (ARG)
       ___lwtoft (ARG)
         ___ftpack
     ___ftmul (ARG)
       ___awtoft (ARG)
         ___ftpack
       ___ftdiv (ARG)
         ___awtoft (ARG)
           ___ftpack
         ___ftpack (ARG)
         ___lwtoft (ARG)
           ___ftpack
       ___ftpack (ARG)
       ___lwtoft (ARG)
         ___ftpack
       _frexp (ARG)
     ___lwtoft (ARG)
       ___ftpack
   ___lwtoft
     ___ftpack
   _delay_ms
   _dispRH
     _dataCtrl
       _delay_ms
     _instCtrl
       _delay_ms
     _sprintf
       ___fttol (ARG)
         ___awtoft (ARG)
           ___ftpack
         ___ftadd (ARG)
           ___awtoft (ARG)
             ___ftpack
           ___bmul (ARG)
           ___ftdiv (ARG)
             ___awtoft (ARG)
               ___ftpack
             ___ftpack (ARG)
             ___lwtoft (ARG)
               ___ftpack
           ___ftmul (ARG)
             ___awtoft (ARG)
               ___ftpack
             ___ftdiv (ARG)
               ___awtoft (ARG)
                 ___ftpack
               ___ftpack (ARG)
               ___lwtoft (ARG)
                 ___ftpack
             ___ftpack (ARG)
             ___lwtoft (ARG)
               ___ftpack
             _frexp (ARG)
           ___ftpack (ARG)
           ___lwtoft (ARG)
             ___ftpack
           _frexp (ARG)
         ___ftdiv (ARG)
           ___awtoft (ARG)
             ___ftpack
           ___ftpack (ARG)
           ___lwtoft (ARG)
             ___ftpack
         ___ftmul (ARG)
           ___awtoft (ARG)
             ___ftpack
           ___ftdiv (ARG)
             ___awtoft (ARG)
               ___ftpack
             ___ftpack (ARG)
             ___lwtoft (ARG)
               ___ftpack
           ___ftpack (ARG)
           ___lwtoft (ARG)
             ___ftpack
           _frexp (ARG)
         ___lwtoft (ARG)
           ___ftpack
       ___lwdiv (ARG)
       ___lwmod (ARG)
         ___lwdiv (ARG)
   _dispT
     ___fttol
       ___awtoft (ARG)
         ___ftpack
       ___ftadd (ARG)
         ___awtoft (ARG)
           ___ftpack
         ___bmul (ARG)
         ___ftdiv (ARG)
           ___awtoft (ARG)
             ___ftpack
           ___ftpack (ARG)
           ___lwtoft (ARG)
             ___ftpack
         ___ftmul (ARG)
           ___awtoft (ARG)
             ___ftpack
           ___ftdiv (ARG)
             ___awtoft (ARG)
               ___ftpack
             ___ftpack (ARG)
             ___lwtoft (ARG)
               ___ftpack
           ___ftpack (ARG)
           ___lwtoft (ARG)
             ___ftpack
           _frexp (ARG)
         ___ftpack (ARG)
         ___lwtoft (ARG)
           ___ftpack
         _frexp (ARG)
       ___ftdiv (ARG)
         ___awtoft (ARG)
           ___ftpack
         ___ftpack (ARG)
         ___lwtoft (ARG)
           ___ftpack
       ___ftmul (ARG)
         ___awtoft (ARG)
           ___ftpack
         ___ftdiv (ARG)
           ___awtoft (ARG)
             ___ftpack
           ___ftpack (ARG)
           ___lwtoft (ARG)
             ___ftpack
         ___ftpack (ARG)
         ___lwtoft (ARG)
           ___ftpack
         _frexp (ARG)
       ___lwtoft (ARG)
         ___ftpack
     _dataCtrl
       _delay_ms
     _instCtrl
       _delay_ms
     _sprintf
       ___fttol (ARG)
         ___awtoft (ARG)
           ___ftpack
         ___ftadd (ARG)
           ___awtoft (ARG)
             ___ftpack
           ___bmul (ARG)
           ___ftdiv (ARG)
             ___awtoft (ARG)
               ___ftpack
             ___ftpack (ARG)
             ___lwtoft (ARG)
               ___ftpack
           ___ftmul (ARG)
             ___awtoft (ARG)
               ___ftpack
             ___ftdiv (ARG)
               ___awtoft (ARG)
                 ___ftpack
               ___ftpack (ARG)
               ___lwtoft (ARG)
                 ___ftpack
             ___ftpack (ARG)
             ___lwtoft (ARG)
               ___ftpack
             _frexp (ARG)
           ___ftpack (ARG)
           ___lwtoft (ARG)
             ___ftpack
           _frexp (ARG)
         ___ftdiv (ARG)
           ___awtoft (ARG)
             ___ftpack
           ___ftpack (ARG)
           ___lwtoft (ARG)
             ___ftpack
         ___ftmul (ARG)
           ___awtoft (ARG)
             ___ftpack
           ___ftdiv (ARG)
             ___awtoft (ARG)
               ___ftpack
             ___ftpack (ARG)
             ___lwtoft (ARG)
               ___ftpack
           ___ftpack (ARG)
           ___lwtoft (ARG)
             ___ftpack
           _frexp (ARG)
         ___lwtoft (ARG)
           ___ftpack
       ___lwdiv (ARG)
       ___lwmod (ARG)
         ___lwdiv (ARG)
   _initLCD
     _dataCtrl
       _delay_ms
     _delay_ms
     _instCtrl
       _delay_ms
   _init_I2C_Master
   _pow
     ___ftge
     ___ftmul
       ___awtoft (ARG)
         ___ftpack
       ___ftdiv (ARG)
         ___awtoft (ARG)
           ___ftpack
         ___ftpack (ARG)
         ___lwtoft (ARG)
           ___ftpack
       ___ftpack (ARG)
       ___lwtoft (ARG)
         ___ftpack
       _frexp (ARG)
     ___ftneg
     ___fttol
       ___awtoft (ARG)
         ___ftpack
       ___ftadd (ARG)
         ___awtoft (ARG)
           ___ftpack
         ___bmul (ARG)
         ___ftdiv (ARG)
           ___awtoft (ARG)
             ___ftpack
           ___ftpack (ARG)
           ___lwtoft (ARG)
             ___ftpack
         ___ftmul (ARG)
           ___awtoft (ARG)
             ___ftpack
           ___ftdiv (ARG)
             ___awtoft (ARG)
               ___ftpack
             ___ftpack (ARG)
             ___lwtoft (ARG)
               ___ftpack
           ___ftpack (ARG)
           ___lwtoft (ARG)
             ___ftpack
           _frexp (ARG)
         ___ftpack (ARG)
         ___lwtoft (ARG)
           ___ftpack
         _frexp (ARG)
       ___ftdiv (ARG)
         ___awtoft (ARG)
           ___ftpack
         ___ftpack (ARG)
         ___lwtoft (ARG)
           ___ftpack
       ___ftmul (ARG)
         ___awtoft (ARG)
           ___ftpack
         ___ftdiv (ARG)
           ___awtoft (ARG)
             ___ftpack
           ___ftpack (ARG)
           ___lwtoft (ARG)
             ___ftpack
         ___ftpack (ARG)
         ___lwtoft (ARG)
           ___ftpack
         _frexp (ARG)
       ___lwtoft (ARG)
         ___ftpack
     ___lltoft
       ___ftpack
     _exp
       ___awtoft
         ___ftpack
       ___ftdiv
         ___awtoft (ARG)
           ___ftpack
         ___ftpack (ARG)
         ___lwtoft (ARG)
           ___ftpack
       ___ftge
       ___ftmul
         ___awtoft (ARG)
           ___ftpack
         ___ftdiv (ARG)
           ___awtoft (ARG)
             ___ftpack
           ___ftpack (ARG)
           ___lwtoft (ARG)
             ___ftpack
         ___ftpack (ARG)
         ___lwtoft (ARG)
           ___ftpack
         _frexp (ARG)
       ___ftneg
       ___ftsub
         ___awtoft (ARG)
           ___ftpack
         ___ftadd (ARG)
           ___awtoft (ARG)
             ___ftpack
           ___bmul (ARG)
           ___ftdiv (ARG)
             ___awtoft (ARG)
               ___ftpack
             ___ftpack (ARG)
             ___lwtoft (ARG)
               ___ftpack
           ___ftmul (ARG)
             ___awtoft (ARG)
               ___ftpack
             ___ftdiv (ARG)
               ___awtoft (ARG)
                 ___ftpack
               ___ftpack (ARG)
               ___lwtoft (ARG)
                 ___ftpack
             ___ftpack (ARG)
             ___lwtoft (ARG)
               ___ftpack
             _frexp (ARG)
           ___ftpack (ARG)
           ___lwtoft (ARG)
             ___ftpack
           _frexp (ARG)
       ___fttol
         ___awtoft (ARG)
           ___ftpack
         ___ftadd (ARG)
           ___awtoft (ARG)
             ___ftpack
           ___bmul (ARG)
           ___ftdiv (ARG)
             ___awtoft (ARG)
               ___ftpack
             ___ftpack (ARG)
             ___lwtoft (ARG)
               ___ftpack
           ___ftmul (ARG)
             ___awtoft (ARG)
               ___ftpack
             ___ftdiv (ARG)
               ___awtoft (ARG)
                 ___ftpack
               ___ftpack (ARG)
               ___lwtoft (ARG)
                 ___ftpack
             ___ftpack (ARG)
             ___lwtoft (ARG)
               ___ftpack
             _frexp (ARG)
           ___ftpack (ARG)
           ___lwtoft (ARG)
             ___ftpack
           _frexp (ARG)
         ___ftdiv (ARG)
           ___awtoft (ARG)
             ___ftpack
           ___ftpack (ARG)
           ___lwtoft (ARG)
             ___ftpack
         ___ftmul (ARG)
           ___awtoft (ARG)
             ___ftpack
           ___ftdiv (ARG)
             ___awtoft (ARG)
               ___ftpack
             ___ftpack (ARG)
             ___lwtoft (ARG)
               ___ftpack
           ___ftpack (ARG)
           ___lwtoft (ARG)
             ___ftpack
           _frexp (ARG)
         ___lwtoft (ARG)
           ___ftpack
       _eval_poly
         ___bmul
         ___ftadd
           ___awtoft (ARG)
             ___ftpack
           ___bmul (ARG)
           ___ftdiv (ARG)
             ___awtoft (ARG)
               ___ftpack
             ___ftpack (ARG)
             ___lwtoft (ARG)
               ___ftpack
           ___ftmul (ARG)
             ___awtoft (ARG)
               ___ftpack
             ___ftdiv (ARG)
               ___awtoft (ARG)
                 ___ftpack
               ___ftpack (ARG)
               ___lwtoft (ARG)
                 ___ftpack
             ___ftpack (ARG)
             ___lwtoft (ARG)
               ___ftpack
             _frexp (ARG)
           ___ftpack (ARG)
           ___lwtoft (ARG)
             ___ftpack
           _frexp (ARG)
         ___ftmul
           ___awtoft (ARG)
             ___ftpack
           ___ftdiv (ARG)
             ___awtoft (ARG)
               ___ftpack
             ___ftpack (ARG)
             ___lwtoft (ARG)
               ___ftpack
           ___ftpack (ARG)
           ___lwtoft (ARG)
             ___ftpack
           _frexp (ARG)
       _floor
         ___altoft
           ___ftpack
           ___fttol (ARG)
             ___awtoft (ARG)
               ___ftpack
             ___ftadd (ARG)
               ___awtoft (ARG)
                 ___ftpack
               ___bmul (ARG)
               ___ftdiv (ARG)
                 ___awtoft (ARG)
                   ___ftpack
                 ___ftpack (ARG)
                 ___lwtoft (ARG)
                   ___ftpack
               ___ftmul (ARG)
                 ___awtoft (ARG)
                   ___ftpack
                 ___ftdiv (ARG)
                   ___awtoft (ARG)
                     ___ftpack
                   ___ftpack (ARG)
                   ___lwtoft (ARG)
                     ___ftpack
                 ___ftpack (ARG)
                 ___lwtoft (ARG)
                   ___ftpack
                 _frexp (ARG)
               ___ftpack (ARG)
               ___lwtoft (ARG)
                 ___ftpack
               _frexp (ARG)
             ___ftdiv (ARG)
               ___awtoft (ARG)
                 ___ftpack
               ___ftpack (ARG)
               ___lwtoft (ARG)
                 ___ftpack
             ___ftmul (ARG)
               ___awtoft (ARG)
                 ___ftpack
               ___ftdiv (ARG)
                 ___awtoft (ARG)
                   ___ftpack
                 ___ftpack (ARG)
                 ___lwtoft (ARG)
                   ___ftpack
               ___ftpack (ARG)
               ___lwtoft (ARG)
                 ___ftpack
               _frexp (ARG)
             ___lwtoft (ARG)
               ___ftpack
         ___ftadd
           ___awtoft (ARG)
             ___ftpack
           ___bmul (ARG)
           ___ftdiv (ARG)
             ___awtoft (ARG)
               ___ftpack
             ___ftpack (ARG)
             ___lwtoft (ARG)
               ___ftpack
           ___ftmul (ARG)
             ___awtoft (ARG)
               ___ftpack
             ___ftdiv (ARG)
               ___awtoft (ARG)
                 ___ftpack
               ___ftpack (ARG)
               ___lwtoft (ARG)
                 ___ftpack
             ___ftpack (ARG)
             ___lwtoft (ARG)
               ___ftpack
             _frexp (ARG)
           ___ftpack (ARG)
           ___lwtoft (ARG)
             ___ftpack
           _frexp (ARG)
         ___ftge
         ___fttol
           ___awtoft (ARG)
             ___ftpack
           ___ftadd (ARG)
             ___awtoft (ARG)
               ___ftpack
             ___bmul (ARG)
             ___ftdiv (ARG)
               ___awtoft (ARG)
                 ___ftpack
               ___ftpack (ARG)
               ___lwtoft (ARG)
                 ___ftpack
             ___ftmul (ARG)
               ___awtoft (ARG)
                 ___ftpack
               ___ftdiv (ARG)
                 ___awtoft (ARG)
                   ___ftpack
                 ___ftpack (ARG)
                 ___lwtoft (ARG)
                   ___ftpack
               ___ftpack (ARG)
               ___lwtoft (ARG)
                 ___ftpack
               _frexp (ARG)
             ___ftpack (ARG)
             ___lwtoft (ARG)
               ___ftpack
             _frexp (ARG)
           ___ftdiv (ARG)
             ___awtoft (ARG)
               ___ftpack
             ___ftpack (ARG)
             ___lwtoft (ARG)
               ___ftpack
           ___ftmul (ARG)
             ___awtoft (ARG)
               ___ftpack
             ___ftdiv (ARG)
               ___awtoft (ARG)
                 ___ftpack
               ___ftpack (ARG)
               ___lwtoft (ARG)
                 ___ftpack
             ___ftpack (ARG)
             ___lwtoft (ARG)
               ___ftpack
             _frexp (ARG)
           ___lwtoft (ARG)
             ___ftpack
         _frexp
       _ldexp
         ___ftge
         ___ftneg
         _eval_poly (ARG)
           ___bmul
           ___ftadd
             ___awtoft (ARG)
               ___ftpack
             ___bmul (ARG)
             ___ftdiv (ARG)
               ___awtoft (ARG)
                 ___ftpack
               ___ftpack (ARG)
               ___lwtoft (ARG)
                 ___ftpack
             ___ftmul (ARG)
               ___awtoft (ARG)
                 ___ftpack
               ___ftdiv (ARG)
                 ___awtoft (ARG)
                   ___ftpack
                 ___ftpack (ARG)
                 ___lwtoft (ARG)
                   ___ftpack
               ___ftpack (ARG)
               ___lwtoft (ARG)
                 ___ftpack
               _frexp (ARG)
             ___ftpack (ARG)
             ___lwtoft (ARG)
               ___ftpack
             _frexp (ARG)
           ___ftmul
             ___awtoft (ARG)
               ___ftpack
             ___ftdiv (ARG)
               ___awtoft (ARG)
                 ___ftpack
               ___ftpack (ARG)
               ___lwtoft (ARG)
                 ___ftpack
             ___ftpack (ARG)
             ___lwtoft (ARG)
               ___ftpack
             _frexp (ARG)
       _log (ARG)
         ___awtoft
           ___ftpack
         ___ftadd
           ___awtoft (ARG)
             ___ftpack
           ___bmul (ARG)
           ___ftdiv (ARG)
             ___awtoft (ARG)
               ___ftpack
             ___ftpack (ARG)
             ___lwtoft (ARG)
               ___ftpack
           ___ftmul (ARG)
             ___awtoft (ARG)
               ___ftpack
             ___ftdiv (ARG)
               ___awtoft (ARG)
                 ___ftpack
               ___ftpack (ARG)
               ___lwtoft (ARG)
                 ___ftpack
             ___ftpack (ARG)
             ___lwtoft (ARG)
               ___ftpack
             _frexp (ARG)
           ___ftpack (ARG)
           ___lwtoft (ARG)
             ___ftpack
           _frexp (ARG)
         ___ftge
         ___ftmul
           ___awtoft (ARG)
             ___ftpack
           ___ftdiv (ARG)
             ___awtoft (ARG)
               ___ftpack
             ___ftpack (ARG)
             ___lwtoft (ARG)
               ___ftpack
           ___ftpack (ARG)
           ___lwtoft (ARG)
             ___ftpack
           _frexp (ARG)
         _eval_poly
           ___bmul
           ___ftadd
             ___awtoft (ARG)
               ___ftpack
             ___bmul (ARG)
             ___ftdiv (ARG)
               ___awtoft (ARG)
                 ___ftpack
               ___ftpack (ARG)
               ___lwtoft (ARG)
                 ___ftpack
             ___ftmul (ARG)
               ___awtoft (ARG)
                 ___ftpack
               ___ftdiv (ARG)
                 ___awtoft (ARG)
                   ___ftpack
                 ___ftpack (ARG)
                 ___lwtoft (ARG)
                   ___ftpack
               ___ftpack (ARG)
               ___lwtoft (ARG)
                 ___ftpack
               _frexp (ARG)
             ___ftpack (ARG)
             ___lwtoft (ARG)
               ___ftpack
             _frexp (ARG)
           ___ftmul
             ___awtoft (ARG)
               ___ftpack
             ___ftdiv (ARG)
               ___awtoft (ARG)
                 ___ftpack
               ___ftpack (ARG)
               ___lwtoft (ARG)
                 ___ftpack
             ___ftpack (ARG)
             ___lwtoft (ARG)
               ___ftpack
             _frexp (ARG)
         _frexp
     _log
       ___awtoft
         ___ftpack
       ___ftadd
         ___awtoft (ARG)
           ___ftpack
         ___bmul (ARG)
         ___ftdiv (ARG)
           ___awtoft (ARG)
             ___ftpack
           ___ftpack (ARG)
           ___lwtoft (ARG)
             ___ftpack
         ___ftmul (ARG)
           ___awtoft (ARG)
             ___ftpack
           ___ftdiv (ARG)
             ___awtoft (ARG)
               ___ftpack
             ___ftpack (ARG)
             ___lwtoft (ARG)
               ___ftpack
           ___ftpack (ARG)
           ___lwtoft (ARG)
             ___ftpack
           _frexp (ARG)
         ___ftpack (ARG)
         ___lwtoft (ARG)
           ___ftpack
         _frexp (ARG)
       ___ftge
       ___ftmul
         ___awtoft (ARG)
           ___ftpack
         ___ftdiv (ARG)
           ___awtoft (ARG)
             ___ftpack
           ___ftpack (ARG)
           ___lwtoft (ARG)
             ___ftpack
         ___ftpack (ARG)
         ___lwtoft (ARG)
           ___ftpack
         _frexp (ARG)
       _eval_poly
         ___bmul
         ___ftadd
           ___awtoft (ARG)
             ___ftpack
           ___bmul (ARG)
           ___ftdiv (ARG)
             ___awtoft (ARG)
               ___ftpack
             ___ftpack (ARG)
             ___lwtoft (ARG)
               ___ftpack
           ___ftmul (ARG)
             ___awtoft (ARG)
               ___ftpack
             ___ftdiv (ARG)
               ___awtoft (ARG)
                 ___ftpack
               ___ftpack (ARG)
               ___lwtoft (ARG)
                 ___ftpack
             ___ftpack (ARG)
             ___lwtoft (ARG)
               ___ftpack
             _frexp (ARG)
           ___ftpack (ARG)
           ___lwtoft (ARG)
             ___ftpack
           _frexp (ARG)
         ___ftmul
           ___awtoft (ARG)
             ___ftpack
           ___ftdiv (ARG)
             ___awtoft (ARG)
               ___ftpack
             ___ftpack (ARG)
             ___lwtoft (ARG)
               ___ftpack
           ___ftpack (ARG)
           ___lwtoft (ARG)
             ___ftpack
           _frexp (ARG)
       _frexp

 Address spaces:
Name               Size   Autos  Total    Cost      Usage
BITCOMMON            E      0       0       0        0.0%
EEDATA             100      0       0       0        0.0%
NULL                 0      0       0       0        0.0%
CODE                 0      0       0       0        0.0%
COMMON               E      E       E       1      100.0%
BITSFR0              0      0       0       1        0.0%
SFR0                 0      0       0       1        0.0%
BITSFR1              0      0       0       2        0.0%
SFR1                 0      0       0       2        0.0%
STACK                0      0       0       2        0.0%
ABS                  0      0      8C       3        0.0%
BITBANK0            50      0       0       4        0.0%
BITSFR3              0      0       0       4        0.0%
SFR3                 0      0       0       4        0.0%
BANK0               50     50      50       5      100.0%
BITSFR2              0      0       0       5        0.0%
SFR2                 0      0       0       5        0.0%
BITBANK1            50      0       0       6        0.0%
BANK1               50     27      2E       7       57.5%
BITBANK3            60      0       0       8        0.0%
BANK3               60      0       0       9        0.0%
BITBANK2            60      0       0      10        0.0%
BANK2               60      0       0      11        0.0%
DATA                 0      0      8C      12        0.0%


Microchip Technology PIC Macro Assembler V1.33 build 59893 
Symbol Table                                                                                   Wed Apr 29 08:55:24 2026

              ___altoft@exp 0061                           _T 00C7                           pc 0002  
            ___bmul@product 0072          __size_of_I2C_Start 0007                 __CFG_CP$OFF 0000  
             ___altoft@sign 0062                          _RH 00CA                          fsr 0004  
              ___ftadd@exp1 004C                ___ftadd@exp2 004B                ___ftadd@sign 004A  
                       l405 0B73                         l428 0279                         l399 0B5A  
                       l599 02FB                         _RD0 0040                         _RD1 0041  
                       _PEN 048A                __CFG_CPD$OFF 0000                         _SEN 0488  
                       _exp 042E                         _log 0F30                         _pow 02DA  
                       fsr0 0004                         indf 0000        __size_of_I2C_Receive 0026  
              __CFG_FOSC$HS 0000                __CFG_LVP$OFF 0000                ___ftdiv@cntr 002A  
              ___ftdiv@sign 002F                        l2104 014C                        l2008 0BFE  
                      l2130 0186                        l2122 0182                        l2018 0D3A  
                      l2140 17D0                        l2116 0173                        l2108 0152  
                      l2132 00FF                        l2052 0DAC                        l2028 0D63  
                      l2204 04B8                        l2302 08F0                        l2134 01CC  
                      l2150 0909                        l2320 0A36                        l2048 0DA3  
                      l2160 0F54                        l2240 0304                        l1602 0B5F  
                      l2322 0A50                        l2226 059A                        l1604 0B69  
                      l2148 08F7                        l1700 028B                        l1620 17F7  
                      l2094 0135                        l2334 0AF3                        l2182 043C  
                      l2166 0F6A                        l2254 0378                        l2246 0310  
                      l2088 011F                        l2336 0B0D                        l1704 029D  
                      l1616 17F1                        l1640 09E6                        l2192 045D  
                      l1802 0C1F                        l1714 02C0                        l1642 09F8  
                      l1722 0A88                        l2258 0390                        l1820 0C51  
                      l2364 0606                        l1830 0C79                        l1822 0C61  
                      l1654 01FA                        l1750 0053                        l1726 0AAF  
                      l2198 0481                        l1592 0B33                        l1832 0C7C  
                      l1912 0F0A                        l1904 0EEB                        l1664 0210  
                      l1744 003D                        l1594 0B3F                        l1682 023F  
                      l1658 0201                        l1762 0092                        l1596 0B44  
                      l1588 0B2C                        l1836 0C8A                        l1828 0C6E  
                      l1684 024B                        l1676 022A                        l1694 0269  
                      l1686 0250                        l1774 00BA                        l1766 00A2  
                      l1864 087D                        l1944 097E                        l1936 095A  
                      l1960 0924                        l1696 0275                        l1688 0254  
                      l1848 09A2                        l1938 0968                        l1962 0932  
                      l1970 094B                        l1874 000E                        l1890 0EA6  
                      l1778 00CA                        l1948 0989                        l1884 0E90  
                      l1966 0940                        l1984 0CC4                        l1988 0CCD  
                      l1998 0D23                        ?_exp 006C                        ?_log 0057  
                      ?_pow 00A9                        STR_1 0849                        STR_2 0849  
                      u2025 0C52                        u1405 0B38                        u2205 095D  
                      u2055 0C70                        u2135 0EB8                        u1425 0B53  
                      u2225 0969                        u2305 0941                        u2145 0ECA  
                      u2235 0975                        u2155 0EEC                        u1445 0B62  
                      u2245 097F                        u2165 0EFD                        u1525 09EB  
                      u2095 0886                        u2175 0F0B                        u1475 0B7A  
                      u2275 0927                        u2515 08FC                        u1635 022B  
                      u1811 0AA2                        u1812 0AA3                        u2445 0169  
                      u1725 026A                        u1813 0AA8                        u2605 058F  
                      u1814 0AA9                        u2295 0938                        u1665 0240  
                      u1905 00AB                        u2395 0D6C                        u2715 0651  
                      u2725 065D                        u2670 08ED                        u1695 0255  
                      u1855 005F                        u1791 0A7B                        u2655 036B  
                      u2735 0746                        u1792 0A7C                        u1945 00CB  
                      u1865 0071                        u1793 0A81                        u2745 0752  
                      u1794 0A82                        u1955 00D3                        u2757 088A  
                      u1895 00A3                        u1995 0C26                        _RCEN 048B  
                      _RSEN 0489                __CFG_WRT$OFF 0000                        _main 05B3  
              ___ftpack@arg 0070                ___ftpack@exp 0073            __end_of_I2C_Send 0857  
                      btemp 007E            __end_of_I2C_Wait 17D8                        exp@x 006C  
                      log@x 0057            __end_of_I2C_Stop 17D0               __CFG_BOREN$ON 0000  
                      ltemp 007E                        pow@x 00A9                        pow@y 00AC  
                      start 0000                        ttemp 007E                        wtemp 007E  
         ___bmul@multiplier 0073                ___ftmul@cntr 003E                ___ftmul@sign 003F  
              ___fttol@exp1 005A                       ??_exp 006F                       ??_log 005A  
              ___fttol@lval 0056                       ??_pow 00AF                       ?_main 0070  
                     _ACKEN 048C                       _ACKDT 048D             __end_of___ftadd 02DA  
             __CFG_WDTE$OFF 0000             __end_of___ftdiv 0F30             __end_of___ftneg 17E0  
           __end_of___ftmul 00F8             __end_of___ftsub 08CD             __end_of___fttol 0C93  
           __end_of___lwdiv 0990             __end_of___lwmod 0952                       _PORTB 0006  
                     _PORTD 0008                       _TRISB 0086                       _TRISD 0088  
             __CFG_PWRTE$ON 0000                ___lltoft@exp 007D             __end_of_initLCD 0E78  
             ___awtoft@sign 007D                       _dispT 0ABE             __end_of_dpowers 0810  
                     _floor 0C93                       _ldexp 0D2C                       _frexp 0990  
                     _errno 00CC               ___ftpack@sign 0074           __end_of_I2C_Start 17C9  
                     pclath 000A                       ltemp0 007E                       ltemp1 0082  
                     ltemp2 0086                       ltemp3 0080                       pow@yi 00B7  
                     ttemp0 007E                       ttemp1 0081                       ttemp2 0084  
                     ttemp3 0087                       ttemp4 007F                       status 0003  
                     wtemp0 007E                       wtemp1 0080                       wtemp2 0082  
                     wtemp3 0084                       wtemp4 0086                       wtemp5 0088  
                     wtemp6 007F             __end_of_sprintf 01D1                 exp@exponent 00A6  
               ldexp@newexp 005A             __initialization 07F3                 log@exponent 005B  
              __end_of_main 07F3                      ??_main 00BB               ___fttol@sign1 0055  
                    ?_dispT 0070                      ?_floor 0063                      ?_ldexp 0057  
                    ?_frexp 0070            __end_of___altoft 0A12            __end_of___awtoft 0025  
          __end_of___ftpack 0B8C            __end_of___lltoft 091E            __end_of___lwtoft 087D  
                    _SSPADD 0093                      _TRISC3 043B                      _TRISC4 043C  
                    _SSPCON 0014                      _SSPBUF 0013            __end_of_dataCtrl 0869  
          __end_of_delay_ms 0896                      ___bmul 17EF                      ___ftge 0A61  
                 ??___ftadd 0046                   ??___ftdiv 0026                   ??___ftneg 0073  
                 ??___ftmul 0036                   ??___ftsub 007E                   ??___fttol 0051  
                    _dispRH 0A12                   ??___lwdiv 0074                   ??___lwmod 007C  
  __size_of_init_I2C_Master 000F            __end_of_instCtrl 08B1                      dispT@i 00AA  
                    floor@i 0067                      floor@x 0063       ___ftmul@f3_as_product 003B  
                 ??_initLCD 0074                   ?_I2C_Send 0070                   ?_I2C_Wait 0070  
                 ?_I2C_Stop 0070                   ??_sprintf 005E            __end_ofexp@coeff 082E  
          __end_oflog@coeff 0849     __end_of__initialization 07FC                  ___altoft@c 005B  
                ___ftadd@f1 0040                  ___ftadd@f2 0043                  ___ftge@ff1 0070  
                ___ftge@ff2 0073                eval_poly@res 0054                  ___ftdiv@f1 0023  
                ___ftdiv@f2 0020                  ___ftdiv@f3 002B                  ___ftneg@f1 0070  
                ___awtoft@c 0078         ___bmul@multiplicand 0070                  ___ftmul@f1 0030  
                ___ftmul@f2 0033                  ___ftsub@f1 0050                  ___ftsub@f2 004D  
                ___fttol@f1 004D              __pcstackCOMMON 0070                  ___lltoft@c 0078  
             __end_of_dispT 0B24               __end_of_floor 0D2C               __end_of_ldexp 0DC5  
             __end_of_frexp 09D0                  ___lwtoft@c 0078                  ??_I2C_Send 0070  
                ??_I2C_Wait 0070                  ??_I2C_Stop 0070                     ??_dispT 006A  
                   ??_floor 0066                     ??_ldexp 005C                     ??_frexp 0074  
                __pbssBANK1 00C7          __size_of_eval_poly 0079                  __pmaintext 05B3  
                   ?___bmul 0070                     ?___ftge 0070                     ?_dispRH 0070  
                 ?___altoft 005B                   ?___awtoft 0078                   ?___ftpack 0070  
             ??_I2C_Receive 0070                I2C_Send@data 0070                   ?___lltoft 0078  
                 ?___lwtoft 0078                   ?_dataCtrl 0070           ??_init_I2C_Master 0070  
                 ?_delay_ms 0070                     _SSPCON2 0091                     _SSPSTAT 0094  
                __stringtab 0800                   ?_instCtrl 0070                   _I2C_Start 17C2  
            I2C_Receive@ack 0071             __size_of___bmul 0011             __size_of___ftge 005D  
                   ___ftadd 01D1                     ___ftdiv 0E78                     ___ftneg 17D8  
                   ___ftmul 0025                     ___ftsub 08B1                     ___fttol 0C05  
                   ___lwdiv 0952                     ___lwmod 091E             __size_of_dispRH 004F  
                ??___altoft 005F                     _exp$440 00A3                     _exp$649 00A0  
                ??___awtoft 007B                  ??___ftpack 0075           __end_of_eval_poly 0C05  
                ??___lltoft 007C                     __ptext1 02DA                     __ptext2 0F30  
                   __ptext3 042E                     __ptext4 0D2C                     __ptext5 17D8  
                   __ptext6 0C93                     __ptext7 0990                     __ptext8 0A61  
                   __ptext9 09D0                  ??___lwtoft 007B                     _pow$647 00B0  
                   _pow$648 00B3                     _initLCD 0DC5                     _dpowers 0806  
                ??_dataCtrl 0073                __size_of_exp 0185                __size_of_log 00D0  
              __size_of_pow 0154                  ??_delay_ms 0072                     dispRH@i 00AA  
       __end_of_I2C_Receive 08F3                     _sprintf 00F8                     main@res 00C0  
      end_of_initialization 07FC                     exp@sign 00A8                  ??_instCtrl 0073  
                ?_I2C_Start 0070                     pow@sign 00B6           __size_of_I2C_Send 0009  
         __size_of_I2C_Wait 0008           __size_of_I2C_Stop 0007                instCtrl@INST 0073  
                main@T_temp 00C4                 ___ftdiv@exp 002E                 ___ftmul@exp 003A  
            __end_of___bmul 1800              __end_of___ftge 0ABE              __end_of_dispRH 0A61  
               _I2C_Receive 08CD                  floor@expon 006A         start_initialization 07F3  
                eval_poly@d 0050                  eval_poly@n 0051                  eval_poly@x 004D  
                ldexp@value 0057                 __end_of_exp 05B3                 __end_of_log 1000  
               __end_of_pow 042E                dataCtrl@DATA 0073                  frexp@value 0070  
               ??_I2C_Start 0070                    ??___bmul 0071                    ??___ftge 0076  
           _init_I2C_Master 17E0                    ??_dispRH 006A           _I2C_RepeatedStart 17BB  
        ?_I2C_RepeatedStart 0070           __size_of___altoft 0042           __size_of___awtoft 0021  
         __size_of___ftpack 0068           __size_of___lltoft 002B                   ___latbits 0002  
         __size_of___lwtoft 0014               __pcstackBANK0 0020               __pcstackBANK1 00A0  
       ??_I2C_RepeatedStart 0070         __end_of__stringdata 084C           __size_of_dataCtrl 0012  
         __size_of_delay_ms 0019                 sprintf@_val 0064                 sprintf@flag 0062  
               sprintf@prec 0063            ___lwdiv@dividend 0072           __size_of_instCtrl 001B  
 __end_of_I2C_RepeatedStart 17C2                    ?___ftadd 0040                    ?___ftdiv 0020  
                  ?___ftneg 0070                    ?___ftmul 0030                    ?___ftsub 004D  
                  ?___fttol 004D                    ?___lwdiv 0070                    ?___lwmod 0078  
                 __pstrings 0800                   _ldexp$477 005E                    ?_initLCD 0070  
                  _I2C_Send 084E                    _I2C_Wait 17D0                   _eval_poly 0B8C  
                  _I2C_Stop 17C9            ___lwdiv@quotient 0075              __size_of_dispT 0066  
                  ?_sprintf 005B              __size_of_floor 0099              __size_of_ldexp 0099  
            __size_of_frexp 0040     __end_of_init_I2C_Master 17EF                   dispRH@val 00A0  
               __stringbase 0805                 __stringdata 0849                  ?_eval_poly 004D  
           I2C_Receive@temp 0072                   frexp@eptr 0073  __size_of_I2C_RepeatedStart 0007  
          __size_of___ftadd 0109            __size_of___ftdiv 00B8            __size_of___ftneg 0008  
                  ___altoft 09D0            __size_of___ftmul 00D3            __size_of___ftsub 001C  
          __size_of___fttol 008E            __size_of___lwdiv 003E            __size_of___lwmod 0034  
                  ___awtoft 0004                    ___ftpack 0B24          __end_of__stringtab 0806  
                  ___lltoft 08F3                ?_I2C_Receive 0070                    ___lwtoft 0869  
                  _dataCtrl 0857            __size_of_initLCD 00B3                    _main$646 00BD  
                  _delay_ms 087D             ___lwdiv@divisor 0070             ___lwdiv@counter 0077  
                  __ptext10 0B8C                    __ptext11 0025                    __ptext20 0ABE  
                  __ptext12 17EF                    __ptext21 0C05                    __ptext13 08B1  
                  __ptext30 0B24                    __ptext22 0A12                    __ptext14 01D1  
                  __ptext31 17C9                    __ptext23 00F8                    __ptext15 0E78  
                  __ptext32 17C2                    __ptext24 091E                    __ptext16 0004  
                  __ptext33 084E                    __ptext25 0952                    __ptext17 08F3  
                  __ptext34 17BB                    __ptext26 0896                    __ptext18 17E0  
                  __ptext35 08CD                    __ptext27 0857                    __ptext19 0DC5  
                  __ptext36 17D0                    __ptext28 087D                    __ptext29 0869  
          __size_of_sprintf 00D9               __size_of_main 0240                    _instCtrl 0896  
          ?_init_I2C_Master 0070                    dispT@val 00A0                    main@temp 00C6  
               delay_ms@cnt 0070                    exp@coeff 0810                    log@coeff 082E  
               ??_eval_poly 0053                   sprintf@ap 0061                   sprintf@sp 0068  
          ___lwmod@dividend 007A                   stringcode 0800                    sprintf@c 0069  
                  sprintf@f 005B             ___lwmod@divisor 0078             ___lwmod@counter 007D  
                  stringdir 0800                    stringtab 0800                 main@RH_temp 00C2  
